
LCD_Lib.elf:     file format elf32-avr

Sections:
Idx Name          Size      VMA       LMA       File off  Algn
  0 .data         00000012  00800100  00001046  000010da  2**0
                  CONTENTS, ALLOC, LOAD, DATA
  1 .text         00001046  00000000  00000000  00000094  2**1
                  CONTENTS, ALLOC, LOAD, READONLY, CODE
  2 .bss          00000028  00800112  00800112  000010ec  2**0
                  ALLOC
  3 .comment      0000005c  00000000  00000000  000010ec  2**0
                  CONTENTS, READONLY
  4 .note.gnu.avr.deviceinfo 0000003c  00000000  00000000  00001148  2**2
                  CONTENTS, READONLY
  5 .debug_aranges 00000108  00000000  00000000  00001184  2**0
                  CONTENTS, READONLY, DEBUGGING
  6 .debug_info   00002689  00000000  00000000  0000128c  2**0
                  CONTENTS, READONLY, DEBUGGING
  7 .debug_abbrev 00000b5b  00000000  00000000  00003915  2**0
                  CONTENTS, READONLY, DEBUGGING
  8 .debug_line   00000a7b  00000000  00000000  00004470  2**0
                  CONTENTS, READONLY, DEBUGGING
  9 .debug_frame  000003b4  00000000  00000000  00004eec  2**2
                  CONTENTS, READONLY, DEBUGGING
 10 .debug_str    000007f8  00000000  00000000  000052a0  2**0
                  CONTENTS, READONLY, DEBUGGING
 11 .debug_loc    000017ea  00000000  00000000  00005a98  2**0
                  CONTENTS, READONLY, DEBUGGING
 12 .debug_ranges 00000100  00000000  00000000  00007282  2**0
                  CONTENTS, READONLY, DEBUGGING

Disassembly of section .text:

00000000 <__vectors>:
       0:	0c 94 34 00 	jmp	0x68	; 0x68 <__ctors_end>
       4:	0c 94 51 00 	jmp	0xa2	; 0xa2 <__bad_interrupt>
       8:	0c 94 51 00 	jmp	0xa2	; 0xa2 <__bad_interrupt>
       c:	0c 94 51 00 	jmp	0xa2	; 0xa2 <__bad_interrupt>
      10:	0c 94 51 00 	jmp	0xa2	; 0xa2 <__bad_interrupt>
      14:	0c 94 51 00 	jmp	0xa2	; 0xa2 <__bad_interrupt>
      18:	0c 94 51 00 	jmp	0xa2	; 0xa2 <__bad_interrupt>
      1c:	0c 94 51 00 	jmp	0xa2	; 0xa2 <__bad_interrupt>
      20:	0c 94 51 00 	jmp	0xa2	; 0xa2 <__bad_interrupt>
      24:	0c 94 51 00 	jmp	0xa2	; 0xa2 <__bad_interrupt>
      28:	0c 94 51 00 	jmp	0xa2	; 0xa2 <__bad_interrupt>
      2c:	0c 94 51 00 	jmp	0xa2	; 0xa2 <__bad_interrupt>
      30:	0c 94 51 00 	jmp	0xa2	; 0xa2 <__bad_interrupt>
      34:	0c 94 51 00 	jmp	0xa2	; 0xa2 <__bad_interrupt>
      38:	0c 94 51 00 	jmp	0xa2	; 0xa2 <__bad_interrupt>
      3c:	0c 94 51 00 	jmp	0xa2	; 0xa2 <__bad_interrupt>
      40:	0c 94 51 00 	jmp	0xa2	; 0xa2 <__bad_interrupt>
      44:	0c 94 51 00 	jmp	0xa2	; 0xa2 <__bad_interrupt>
      48:	0c 94 51 00 	jmp	0xa2	; 0xa2 <__bad_interrupt>
      4c:	0c 94 51 00 	jmp	0xa2	; 0xa2 <__bad_interrupt>
      50:	0c 94 51 00 	jmp	0xa2	; 0xa2 <__bad_interrupt>
      54:	0c 94 51 00 	jmp	0xa2	; 0xa2 <__bad_interrupt>
      58:	0c 94 51 00 	jmp	0xa2	; 0xa2 <__bad_interrupt>
      5c:	0c 94 51 00 	jmp	0xa2	; 0xa2 <__bad_interrupt>
      60:	0c 94 51 00 	jmp	0xa2	; 0xa2 <__bad_interrupt>
      64:	0c 94 51 00 	jmp	0xa2	; 0xa2 <__bad_interrupt>

00000068 <__ctors_end>:
      68:	11 24       	eor	r1, r1
      6a:	1f be       	out	0x3f, r1	; 63
      6c:	cf ef       	ldi	r28, 0xFF	; 255
      6e:	d8 e0       	ldi	r29, 0x08	; 8
      70:	de bf       	out	0x3e, r29	; 62
      72:	cd bf       	out	0x3d, r28	; 61

00000074 <__do_copy_data>:
      74:	11 e0       	ldi	r17, 0x01	; 1
      76:	a0 e0       	ldi	r26, 0x00	; 0
      78:	b1 e0       	ldi	r27, 0x01	; 1
      7a:	e6 e4       	ldi	r30, 0x46	; 70
      7c:	f0 e1       	ldi	r31, 0x10	; 16
      7e:	02 c0       	rjmp	.+4      	; 0x84 <__do_copy_data+0x10>
      80:	05 90       	lpm	r0, Z+
      82:	0d 92       	st	X+, r0
      84:	a2 31       	cpi	r26, 0x12	; 18
      86:	b1 07       	cpc	r27, r17
      88:	d9 f7       	brne	.-10     	; 0x80 <__do_copy_data+0xc>

0000008a <__do_clear_bss>:
      8a:	21 e0       	ldi	r18, 0x01	; 1
      8c:	a2 e1       	ldi	r26, 0x12	; 18
      8e:	b1 e0       	ldi	r27, 0x01	; 1
      90:	01 c0       	rjmp	.+2      	; 0x94 <.do_clear_bss_start>

00000092 <.do_clear_bss_loop>:
      92:	1d 92       	st	X+, r1

00000094 <.do_clear_bss_start>:
      94:	aa 33       	cpi	r26, 0x3A	; 58
      96:	b2 07       	cpc	r27, r18
      98:	e1 f7       	brne	.-8      	; 0x92 <.do_clear_bss_loop>
      9a:	0e 94 d5 04 	call	0x9aa	; 0x9aa <main>
      9e:	0c 94 21 08 	jmp	0x1042	; 0x1042 <_exit>

000000a2 <__bad_interrupt>:
      a2:	0c 94 00 00 	jmp	0	; 0x0 <__vectors>

000000a6 <_ZN5MyLCDC1Echhhhhh>:
		/* This sites the visible part of the display to be the left part(from 0x18 to 0x27)
		if(startAddress == ENDADDRESS)
			shiftR(0x18,0);
		*/
	}
}
      a6:	af 92       	push	r10
      a8:	cf 92       	push	r12
      aa:	ef 92       	push	r14
      ac:	0f 93       	push	r16
      ae:	fc 01       	movw	r30, r24
      b0:	8f ee       	ldi	r24, 0xEF	; 239
      b2:	95 e5       	ldi	r25, 0x55	; 85
      b4:	01 97       	sbiw	r24, 0x01	; 1
      b6:	f1 f7       	brne	.-4      	; 0xb4 <_ZN5MyLCDC1Echhhhhh+0xe>
      b8:	00 c0       	rjmp	.+0      	; 0xba <_ZN5MyLCDC1Echhhhhh+0x14>
      ba:	00 00       	nop
      bc:	63 34       	cpi	r22, 0x43	; 67
      be:	d9 f1       	breq	.+118    	; 0x136 <_ZN5MyLCDC1Echhhhhh+0x90>
      c0:	64 34       	cpi	r22, 0x44	; 68
      c2:	09 f4       	brne	.+2      	; 0xc6 <_ZN5MyLCDC1Echhhhhh+0x20>
      c4:	6d c0       	rjmp	.+218    	; 0x1a0 <_ZN5MyLCDC1Echhhhhh+0xfa>
      c6:	62 34       	cpi	r22, 0x42	; 66
      c8:	09 f0       	breq	.+2      	; 0xcc <_ZN5MyLCDC1Echhhhhh+0x26>
      ca:	9e c0       	rjmp	.+316    	; 0x208 <_ZN5MyLCDC1Echhhhhh+0x162>
      cc:	a4 b1       	in	r26, 0x04	; 4
      ce:	81 e0       	ldi	r24, 0x01	; 1
      d0:	90 e0       	ldi	r25, 0x00	; 0
      d2:	bc 01       	movw	r22, r24
      d4:	0a 2c       	mov	r0, r10
      d6:	02 c0       	rjmp	.+4      	; 0xdc <_ZN5MyLCDC1Echhhhhh+0x36>
      d8:	66 0f       	add	r22, r22
      da:	77 1f       	adc	r23, r23
      dc:	0a 94       	dec	r0
      de:	e2 f7       	brpl	.-8      	; 0xd8 <_ZN5MyLCDC1Echhhhhh+0x32>
      e0:	6a 2b       	or	r22, r26
      e2:	dc 01       	movw	r26, r24
      e4:	0c 2c       	mov	r0, r12
      e6:	02 c0       	rjmp	.+4      	; 0xec <_ZN5MyLCDC1Echhhhhh+0x46>
      e8:	aa 0f       	add	r26, r26
      ea:	bb 1f       	adc	r27, r27
      ec:	0a 94       	dec	r0
      ee:	e2 f7       	brpl	.-8      	; 0xe8 <_ZN5MyLCDC1Echhhhhh+0x42>
      f0:	a6 2b       	or	r26, r22
      f2:	bc 01       	movw	r22, r24
      f4:	0e 2c       	mov	r0, r14
      f6:	02 c0       	rjmp	.+4      	; 0xfc <_ZN5MyLCDC1Echhhhhh+0x56>
      f8:	66 0f       	add	r22, r22
      fa:	77 1f       	adc	r23, r23
      fc:	0a 94       	dec	r0
      fe:	e2 f7       	brpl	.-8      	; 0xf8 <_ZN5MyLCDC1Echhhhhh+0x52>
     100:	6a 2b       	or	r22, r26
     102:	dc 01       	movw	r26, r24
     104:	00 2e       	mov	r0, r16
     106:	02 c0       	rjmp	.+4      	; 0x10c <_ZN5MyLCDC1Echhhhhh+0x66>
     108:	aa 0f       	add	r26, r26
     10a:	bb 1f       	adc	r27, r27
     10c:	0a 94       	dec	r0
     10e:	e2 f7       	brpl	.-8      	; 0x108 <_ZN5MyLCDC1Echhhhhh+0x62>
     110:	a6 2b       	or	r26, r22
     112:	bc 01       	movw	r22, r24
     114:	02 2e       	mov	r0, r18
     116:	02 c0       	rjmp	.+4      	; 0x11c <_ZN5MyLCDC1Echhhhhh+0x76>
     118:	66 0f       	add	r22, r22
     11a:	77 1f       	adc	r23, r23
     11c:	0a 94       	dec	r0
     11e:	e2 f7       	brpl	.-8      	; 0x118 <_ZN5MyLCDC1Echhhhhh+0x72>
     120:	6a 2b       	or	r22, r26
     122:	04 2e       	mov	r0, r20
     124:	02 c0       	rjmp	.+4      	; 0x12a <_ZN5MyLCDC1Echhhhhh+0x84>
     126:	88 0f       	add	r24, r24
     128:	99 1f       	adc	r25, r25
     12a:	0a 94       	dec	r0
     12c:	e2 f7       	brpl	.-8      	; 0x126 <_ZN5MyLCDC1Echhhhhh+0x80>
     12e:	86 2b       	or	r24, r22
     130:	84 b9       	out	0x04, r24	; 4
     132:	65 e0       	ldi	r22, 0x05	; 5
     134:	69 c0       	rjmp	.+210    	; 0x208 <_ZN5MyLCDC1Echhhhhh+0x162>
     136:	a7 b1       	in	r26, 0x07	; 7
     138:	81 e0       	ldi	r24, 0x01	; 1
     13a:	90 e0       	ldi	r25, 0x00	; 0
     13c:	bc 01       	movw	r22, r24
     13e:	0a 2c       	mov	r0, r10
     140:	02 c0       	rjmp	.+4      	; 0x146 <_ZN5MyLCDC1Echhhhhh+0xa0>
     142:	66 0f       	add	r22, r22
     144:	77 1f       	adc	r23, r23
     146:	0a 94       	dec	r0
     148:	e2 f7       	brpl	.-8      	; 0x142 <_ZN5MyLCDC1Echhhhhh+0x9c>
     14a:	6a 2b       	or	r22, r26
     14c:	dc 01       	movw	r26, r24
     14e:	0c 2c       	mov	r0, r12
     150:	02 c0       	rjmp	.+4      	; 0x156 <_ZN5MyLCDC1Echhhhhh+0xb0>
     152:	aa 0f       	add	r26, r26
     154:	bb 1f       	adc	r27, r27
     156:	0a 94       	dec	r0
     158:	e2 f7       	brpl	.-8      	; 0x152 <_ZN5MyLCDC1Echhhhhh+0xac>
     15a:	a6 2b       	or	r26, r22
     15c:	bc 01       	movw	r22, r24
     15e:	0e 2c       	mov	r0, r14
     160:	02 c0       	rjmp	.+4      	; 0x166 <_ZN5MyLCDC1Echhhhhh+0xc0>
     162:	66 0f       	add	r22, r22
     164:	77 1f       	adc	r23, r23
     166:	0a 94       	dec	r0
     168:	e2 f7       	brpl	.-8      	; 0x162 <_ZN5MyLCDC1Echhhhhh+0xbc>
     16a:	6a 2b       	or	r22, r26
     16c:	dc 01       	movw	r26, r24
     16e:	00 2e       	mov	r0, r16
     170:	02 c0       	rjmp	.+4      	; 0x176 <_ZN5MyLCDC1Echhhhhh+0xd0>
     172:	aa 0f       	add	r26, r26
     174:	bb 1f       	adc	r27, r27
     176:	0a 94       	dec	r0
     178:	e2 f7       	brpl	.-8      	; 0x172 <_ZN5MyLCDC1Echhhhhh+0xcc>
     17a:	a6 2b       	or	r26, r22
     17c:	bc 01       	movw	r22, r24
     17e:	02 2e       	mov	r0, r18
     180:	02 c0       	rjmp	.+4      	; 0x186 <_ZN5MyLCDC1Echhhhhh+0xe0>
     182:	66 0f       	add	r22, r22
     184:	77 1f       	adc	r23, r23
     186:	0a 94       	dec	r0
     188:	e2 f7       	brpl	.-8      	; 0x182 <_ZN5MyLCDC1Echhhhhh+0xdc>
     18a:	6a 2b       	or	r22, r26
     18c:	04 2e       	mov	r0, r20
     18e:	02 c0       	rjmp	.+4      	; 0x194 <_ZN5MyLCDC1Echhhhhh+0xee>
     190:	88 0f       	add	r24, r24
     192:	99 1f       	adc	r25, r25
     194:	0a 94       	dec	r0
     196:	e2 f7       	brpl	.-8      	; 0x190 <_ZN5MyLCDC1Echhhhhh+0xea>
     198:	86 2b       	or	r24, r22
     19a:	87 b9       	out	0x07, r24	; 7
     19c:	68 e0       	ldi	r22, 0x08	; 8
     19e:	34 c0       	rjmp	.+104    	; 0x208 <_ZN5MyLCDC1Echhhhhh+0x162>
     1a0:	aa b1       	in	r26, 0x0a	; 10
     1a2:	81 e0       	ldi	r24, 0x01	; 1
     1a4:	90 e0       	ldi	r25, 0x00	; 0
     1a6:	bc 01       	movw	r22, r24
     1a8:	0a 2c       	mov	r0, r10
     1aa:	02 c0       	rjmp	.+4      	; 0x1b0 <_ZN5MyLCDC1Echhhhhh+0x10a>
     1ac:	66 0f       	add	r22, r22
     1ae:	77 1f       	adc	r23, r23
     1b0:	0a 94       	dec	r0
     1b2:	e2 f7       	brpl	.-8      	; 0x1ac <_ZN5MyLCDC1Echhhhhh+0x106>
     1b4:	6a 2b       	or	r22, r26
     1b6:	dc 01       	movw	r26, r24
     1b8:	0c 2c       	mov	r0, r12
     1ba:	02 c0       	rjmp	.+4      	; 0x1c0 <_ZN5MyLCDC1Echhhhhh+0x11a>
     1bc:	aa 0f       	add	r26, r26
     1be:	bb 1f       	adc	r27, r27
     1c0:	0a 94       	dec	r0
     1c2:	e2 f7       	brpl	.-8      	; 0x1bc <_ZN5MyLCDC1Echhhhhh+0x116>
     1c4:	a6 2b       	or	r26, r22
     1c6:	bc 01       	movw	r22, r24
     1c8:	0e 2c       	mov	r0, r14
     1ca:	02 c0       	rjmp	.+4      	; 0x1d0 <_ZN5MyLCDC1Echhhhhh+0x12a>
     1cc:	66 0f       	add	r22, r22
     1ce:	77 1f       	adc	r23, r23
     1d0:	0a 94       	dec	r0
     1d2:	e2 f7       	brpl	.-8      	; 0x1cc <_ZN5MyLCDC1Echhhhhh+0x126>
     1d4:	6a 2b       	or	r22, r26
     1d6:	dc 01       	movw	r26, r24
     1d8:	00 2e       	mov	r0, r16
     1da:	02 c0       	rjmp	.+4      	; 0x1e0 <_ZN5MyLCDC1Echhhhhh+0x13a>
     1dc:	aa 0f       	add	r26, r26
     1de:	bb 1f       	adc	r27, r27
     1e0:	0a 94       	dec	r0
     1e2:	e2 f7       	brpl	.-8      	; 0x1dc <_ZN5MyLCDC1Echhhhhh+0x136>
     1e4:	a6 2b       	or	r26, r22
     1e6:	bc 01       	movw	r22, r24
     1e8:	02 2e       	mov	r0, r18
     1ea:	02 c0       	rjmp	.+4      	; 0x1f0 <_ZN5MyLCDC1Echhhhhh+0x14a>
     1ec:	66 0f       	add	r22, r22
     1ee:	77 1f       	adc	r23, r23
     1f0:	0a 94       	dec	r0
     1f2:	e2 f7       	brpl	.-8      	; 0x1ec <_ZN5MyLCDC1Echhhhhh+0x146>
     1f4:	6a 2b       	or	r22, r26
     1f6:	04 2e       	mov	r0, r20
     1f8:	02 c0       	rjmp	.+4      	; 0x1fe <_ZN5MyLCDC1Echhhhhh+0x158>
     1fa:	88 0f       	add	r24, r24
     1fc:	99 1f       	adc	r25, r25
     1fe:	0a 94       	dec	r0
     200:	e2 f7       	brpl	.-8      	; 0x1fa <_ZN5MyLCDC1Echhhhhh+0x154>
     202:	86 2b       	or	r24, r22
     204:	8a b9       	out	0x0a, r24	; 10
     206:	6b e0       	ldi	r22, 0x0B	; 11
     208:	6f 70       	andi	r22, 0x0F	; 15
     20a:	86 2f       	mov	r24, r22
     20c:	88 0f       	add	r24, r24
     20e:	64 81       	ldd	r22, Z+4	; 0x04
     210:	60 7e       	andi	r22, 0xE0	; 224
     212:	94 2f       	mov	r25, r20
     214:	92 95       	swap	r25
     216:	99 0f       	add	r25, r25
     218:	99 0f       	add	r25, r25
     21a:	90 7c       	andi	r25, 0xC0	; 192
     21c:	42 fb       	bst	r20, 2
     21e:	44 27       	eor	r20, r20
     220:	40 f9       	bld	r20, 0
     222:	68 2b       	or	r22, r24
     224:	64 2b       	or	r22, r20
     226:	64 83       	std	Z+4, r22	; 0x04
     228:	27 70       	andi	r18, 0x07	; 7
     22a:	82 2f       	mov	r24, r18
     22c:	88 0f       	add	r24, r24
     22e:	88 0f       	add	r24, r24
     230:	88 0f       	add	r24, r24
     232:	07 70       	andi	r16, 0x07	; 7
     234:	29 2f       	mov	r18, r25
     236:	28 2b       	or	r18, r24
     238:	20 2b       	or	r18, r16
     23a:	23 83       	std	Z+3, r18	; 0x03
     23c:	ee 0c       	add	r14, r14
     23e:	ee 0c       	add	r14, r14
     240:	ee 0c       	add	r14, r14
     242:	ee 0c       	add	r14, r14
     244:	ee 0c       	add	r14, r14
     246:	82 81       	ldd	r24, Z+2	; 0x02
     248:	8f 71       	andi	r24, 0x1F	; 31
     24a:	e8 2a       	or	r14, r24
     24c:	e2 82       	std	Z+2, r14	; 0x02
     24e:	8c 2d       	mov	r24, r12
     250:	87 70       	andi	r24, 0x07	; 7
     252:	90 81       	ld	r25, Z
     254:	29 2f       	mov	r18, r25
     256:	28 73       	andi	r18, 0x38	; 56
     258:	9a 2d       	mov	r25, r10
     25a:	92 95       	swap	r25
     25c:	99 0f       	add	r25, r25
     25e:	99 0f       	add	r25, r25
     260:	90 7c       	andi	r25, 0xC0	; 192
     262:	c2 2e       	mov	r12, r18
     264:	c8 2a       	or	r12, r24
     266:	c9 2a       	or	r12, r25
     268:	c0 82       	st	Z, r12
     26a:	a2 fa       	bst	r10, 2
     26c:	88 27       	eor	r24, r24
     26e:	80 f9       	bld	r24, 0
     270:	91 81       	ldd	r25, Z+1	; 0x01
     272:	9e 7f       	andi	r25, 0xFE	; 254
     274:	a9 2e       	mov	r10, r25
     276:	a8 2a       	or	r10, r24
     278:	a1 82       	std	Z+1, r10	; 0x01
     27a:	85 81       	ldd	r24, Z+5	; 0x05
     27c:	8b 7f       	andi	r24, 0xFB	; 251
     27e:	8d 7f       	andi	r24, 0xFD	; 253
     280:	85 83       	std	Z+5, r24	; 0x05
     282:	0f 91       	pop	r16
     284:	ef 90       	pop	r14
     286:	cf 90       	pop	r12
     288:	af 90       	pop	r10
     28a:	08 95       	ret

0000028c <_ZN5MyLCD4sendEv>:
     28c:	cf 93       	push	r28
     28e:	df 93       	push	r29
     290:	fc 01       	movw	r30, r24
     292:	85 81       	ldd	r24, Z+5	; 0x05
     294:	81 ff       	sbrs	r24, 1
     296:	56 c0       	rjmp	.+172    	; 0x344 <_ZN5MyLCD4sendEv+0xb8>
     298:	a4 81       	ldd	r26, Z+4	; 0x04
     29a:	8a 2f       	mov	r24, r26
     29c:	82 95       	swap	r24
     29e:	86 95       	lsr	r24
     2a0:	87 70       	andi	r24, 0x07	; 7
     2a2:	a5 81       	ldd	r26, Z+5	; 0x05
     2a4:	a1 70       	andi	r26, 0x01	; 1
     2a6:	aa 0f       	add	r26, r26
     2a8:	aa 0f       	add	r26, r26
     2aa:	aa 0f       	add	r26, r26
     2ac:	a8 2b       	or	r26, r24
     2ae:	b0 e0       	ldi	r27, 0x00	; 0
     2b0:	90 96       	adiw	r26, 0x20	; 32
     2b2:	4c 91       	ld	r20, X
     2b4:	90 97       	sbiw	r26, 0x20	; 32
     2b6:	80 81       	ld	r24, Z
     2b8:	98 2f       	mov	r25, r24
     2ba:	92 95       	swap	r25
     2bc:	96 95       	lsr	r25
     2be:	96 95       	lsr	r25
     2c0:	93 70       	andi	r25, 0x03	; 3
     2c2:	81 81       	ldd	r24, Z+1	; 0x01
     2c4:	81 70       	andi	r24, 0x01	; 1
     2c6:	88 0f       	add	r24, r24
     2c8:	88 0f       	add	r24, r24
     2ca:	89 2b       	or	r24, r25
     2cc:	21 e0       	ldi	r18, 0x01	; 1
     2ce:	30 e0       	ldi	r19, 0x00	; 0
     2d0:	b9 01       	movw	r22, r18
     2d2:	02 c0       	rjmp	.+4      	; 0x2d8 <_ZN5MyLCD4sendEv+0x4c>
     2d4:	66 0f       	add	r22, r22
     2d6:	77 1f       	adc	r23, r23
     2d8:	8a 95       	dec	r24
     2da:	e2 f7       	brpl	.-8      	; 0x2d4 <_ZN5MyLCD4sendEv+0x48>
     2dc:	cb 01       	movw	r24, r22
     2de:	84 2b       	or	r24, r20
     2e0:	90 96       	adiw	r26, 0x20	; 32
     2e2:	8c 93       	st	X, r24
     2e4:	8f ec       	ldi	r24, 0xCF	; 207
     2e6:	97 e0       	ldi	r25, 0x07	; 7
     2e8:	01 97       	sbiw	r24, 0x01	; 1
     2ea:	f1 f7       	brne	.-4      	; 0x2e8 <_ZN5MyLCD4sendEv+0x5c>
     2ec:	00 c0       	rjmp	.+0      	; 0x2ee <_ZN5MyLCD4sendEv+0x62>
     2ee:	00 00       	nop
     2f0:	a4 81       	ldd	r26, Z+4	; 0x04
     2f2:	8a 2f       	mov	r24, r26
     2f4:	82 95       	swap	r24
     2f6:	86 95       	lsr	r24
     2f8:	87 70       	andi	r24, 0x07	; 7
     2fa:	a5 81       	ldd	r26, Z+5	; 0x05
     2fc:	a1 70       	andi	r26, 0x01	; 1
     2fe:	aa 0f       	add	r26, r26
     300:	aa 0f       	add	r26, r26
     302:	aa 0f       	add	r26, r26
     304:	a8 2b       	or	r26, r24
     306:	b0 e0       	ldi	r27, 0x00	; 0
     308:	90 96       	adiw	r26, 0x20	; 32
     30a:	4c 91       	ld	r20, X
     30c:	90 97       	sbiw	r26, 0x20	; 32
     30e:	80 81       	ld	r24, Z
     310:	98 2f       	mov	r25, r24
     312:	92 95       	swap	r25
     314:	96 95       	lsr	r25
     316:	96 95       	lsr	r25
     318:	93 70       	andi	r25, 0x03	; 3
     31a:	81 81       	ldd	r24, Z+1	; 0x01
     31c:	81 70       	andi	r24, 0x01	; 1
     31e:	88 0f       	add	r24, r24
     320:	88 0f       	add	r24, r24
     322:	89 2b       	or	r24, r25
     324:	02 c0       	rjmp	.+4      	; 0x32a <_ZN5MyLCD4sendEv+0x9e>
     326:	22 0f       	add	r18, r18
     328:	33 1f       	adc	r19, r19
     32a:	8a 95       	dec	r24
     32c:	e2 f7       	brpl	.-8      	; 0x326 <_ZN5MyLCD4sendEv+0x9a>
     32e:	20 95       	com	r18
     330:	24 23       	and	r18, r20
     332:	90 96       	adiw	r26, 0x20	; 32
     334:	2c 93       	st	X, r18
     336:	af ec       	ldi	r26, 0xCF	; 207
     338:	b7 e0       	ldi	r27, 0x07	; 7
     33a:	11 97       	sbiw	r26, 0x01	; 1
     33c:	f1 f7       	brne	.-4      	; 0x33a <_ZN5MyLCD4sendEv+0xae>
     33e:	00 c0       	rjmp	.+0      	; 0x340 <_ZN5MyLCD4sendEv+0xb4>
     340:	00 00       	nop
     342:	45 c0       	rjmp	.+138    	; 0x3ce <_ZN5MyLCD4sendEv+0x142>
     344:	a4 81       	ldd	r26, Z+4	; 0x04
     346:	a6 95       	lsr	r26
     348:	af 70       	andi	r26, 0x0F	; 15
     34a:	b0 e0       	ldi	r27, 0x00	; 0
     34c:	90 96       	adiw	r26, 0x20	; 32
     34e:	4c 91       	ld	r20, X
     350:	90 97       	sbiw	r26, 0x20	; 32
     352:	20 81       	ld	r18, Z
     354:	82 2f       	mov	r24, r18
     356:	82 95       	swap	r24
     358:	86 95       	lsr	r24
     35a:	86 95       	lsr	r24
     35c:	83 70       	andi	r24, 0x03	; 3
     35e:	21 81       	ldd	r18, Z+1	; 0x01
     360:	21 70       	andi	r18, 0x01	; 1
     362:	22 0f       	add	r18, r18
     364:	22 0f       	add	r18, r18
     366:	28 2b       	or	r18, r24
     368:	81 e0       	ldi	r24, 0x01	; 1
     36a:	90 e0       	ldi	r25, 0x00	; 0
     36c:	ec 01       	movw	r28, r24
     36e:	02 c0       	rjmp	.+4      	; 0x374 <_ZN5MyLCD4sendEv+0xe8>
     370:	cc 0f       	add	r28, r28
     372:	dd 1f       	adc	r29, r29
     374:	2a 95       	dec	r18
     376:	e2 f7       	brpl	.-8      	; 0x370 <_ZN5MyLCD4sendEv+0xe4>
     378:	9e 01       	movw	r18, r28
     37a:	24 2b       	or	r18, r20
     37c:	90 96       	adiw	r26, 0x20	; 32
     37e:	2c 93       	st	X, r18
     380:	af ec       	ldi	r26, 0xCF	; 207
     382:	b7 e0       	ldi	r27, 0x07	; 7
     384:	11 97       	sbiw	r26, 0x01	; 1
     386:	f1 f7       	brne	.-4      	; 0x384 <_ZN5MyLCD4sendEv+0xf8>
     388:	00 c0       	rjmp	.+0      	; 0x38a <_ZN5MyLCD4sendEv+0xfe>
     38a:	00 00       	nop
     38c:	a4 81       	ldd	r26, Z+4	; 0x04
     38e:	a6 95       	lsr	r26
     390:	af 70       	andi	r26, 0x0F	; 15
     392:	b0 e0       	ldi	r27, 0x00	; 0
     394:	90 96       	adiw	r26, 0x20	; 32
     396:	4c 91       	ld	r20, X
     398:	90 97       	sbiw	r26, 0x20	; 32
     39a:	20 81       	ld	r18, Z
     39c:	32 2f       	mov	r19, r18
     39e:	32 95       	swap	r19
     3a0:	36 95       	lsr	r19
     3a2:	36 95       	lsr	r19
     3a4:	33 70       	andi	r19, 0x03	; 3
     3a6:	21 81       	ldd	r18, Z+1	; 0x01
     3a8:	21 70       	andi	r18, 0x01	; 1
     3aa:	22 0f       	add	r18, r18
     3ac:	22 0f       	add	r18, r18
     3ae:	23 2b       	or	r18, r19
     3b0:	02 c0       	rjmp	.+4      	; 0x3b6 <_ZN5MyLCD4sendEv+0x12a>
     3b2:	88 0f       	add	r24, r24
     3b4:	99 1f       	adc	r25, r25
     3b6:	2a 95       	dec	r18
     3b8:	e2 f7       	brpl	.-8      	; 0x3b2 <_ZN5MyLCD4sendEv+0x126>
     3ba:	80 95       	com	r24
     3bc:	84 23       	and	r24, r20
     3be:	90 96       	adiw	r26, 0x20	; 32
     3c0:	8c 93       	st	X, r24
     3c2:	cf ec       	ldi	r28, 0xCF	; 207
     3c4:	d7 e0       	ldi	r29, 0x07	; 7
     3c6:	21 97       	sbiw	r28, 0x01	; 1
     3c8:	f1 f7       	brne	.-4      	; 0x3c6 <_ZN5MyLCD4sendEv+0x13a>
     3ca:	00 c0       	rjmp	.+0      	; 0x3cc <_ZN5MyLCD4sendEv+0x140>
     3cc:	00 00       	nop
     3ce:	85 81       	ldd	r24, Z+5	; 0x05
     3d0:	81 ff       	sbrs	r24, 1
     3d2:	06 c0       	rjmp	.+12     	; 0x3e0 <_ZN5MyLCD4sendEv+0x154>
     3d4:	e4 81       	ldd	r30, Z+4	; 0x04
     3d6:	e6 95       	lsr	r30
     3d8:	ef 70       	andi	r30, 0x0F	; 15
     3da:	f0 e0       	ldi	r31, 0x00	; 0
     3dc:	10 a2       	std	Z+32, r1	; 0x20
     3de:	3d c0       	rjmp	.+122    	; 0x45a <__LOCK_REGION_LENGTH__+0x5a>
     3e0:	24 81       	ldd	r18, Z+4	; 0x04
     3e2:	a2 2f       	mov	r26, r18
     3e4:	a6 95       	lsr	r26
     3e6:	af 70       	andi	r26, 0x0F	; 15
     3e8:	b0 e0       	ldi	r27, 0x00	; 0
     3ea:	90 96       	adiw	r26, 0x20	; 32
     3ec:	4c 91       	ld	r20, X
     3ee:	90 97       	sbiw	r26, 0x20	; 32
     3f0:	33 81       	ldd	r19, Z+3	; 0x03
     3f2:	53 2f       	mov	r21, r19
     3f4:	56 95       	lsr	r21
     3f6:	56 95       	lsr	r21
     3f8:	56 95       	lsr	r21
     3fa:	57 70       	andi	r21, 0x07	; 7
     3fc:	81 e0       	ldi	r24, 0x01	; 1
     3fe:	90 e0       	ldi	r25, 0x00	; 0
     400:	ec 01       	movw	r28, r24
     402:	02 c0       	rjmp	.+4      	; 0x408 <__LOCK_REGION_LENGTH__+0x8>
     404:	cc 0f       	add	r28, r28
     406:	dd 1f       	adc	r29, r29
     408:	5a 95       	dec	r21
     40a:	e2 f7       	brpl	.-8      	; 0x404 <__LOCK_REGION_LENGTH__+0x4>
     40c:	53 2f       	mov	r21, r19
     40e:	52 95       	swap	r21
     410:	56 95       	lsr	r21
     412:	56 95       	lsr	r21
     414:	53 70       	andi	r21, 0x03	; 3
     416:	21 70       	andi	r18, 0x01	; 1
     418:	22 0f       	add	r18, r18
     41a:	22 0f       	add	r18, r18
     41c:	52 2b       	or	r21, r18
     41e:	bc 01       	movw	r22, r24
     420:	02 c0       	rjmp	.+4      	; 0x426 <__LOCK_REGION_LENGTH__+0x26>
     422:	66 0f       	add	r22, r22
     424:	77 1f       	adc	r23, r23
     426:	5a 95       	dec	r21
     428:	e2 f7       	brpl	.-8      	; 0x422 <__LOCK_REGION_LENGTH__+0x22>
     42a:	6c 2b       	or	r22, r28
     42c:	37 70       	andi	r19, 0x07	; 7
     42e:	ec 01       	movw	r28, r24
     430:	02 c0       	rjmp	.+4      	; 0x436 <__LOCK_REGION_LENGTH__+0x36>
     432:	cc 0f       	add	r28, r28
     434:	dd 1f       	adc	r29, r29
     436:	3a 95       	dec	r19
     438:	e2 f7       	brpl	.-8      	; 0x432 <__LOCK_REGION_LENGTH__+0x32>
     43a:	9e 01       	movw	r18, r28
     43c:	26 2b       	or	r18, r22
     43e:	32 81       	ldd	r19, Z+2	; 0x02
     440:	32 95       	swap	r19
     442:	36 95       	lsr	r19
     444:	37 70       	andi	r19, 0x07	; 7
     446:	02 c0       	rjmp	.+4      	; 0x44c <__LOCK_REGION_LENGTH__+0x4c>
     448:	88 0f       	add	r24, r24
     44a:	99 1f       	adc	r25, r25
     44c:	3a 95       	dec	r19
     44e:	e2 f7       	brpl	.-8      	; 0x448 <__LOCK_REGION_LENGTH__+0x48>
     450:	82 2b       	or	r24, r18
     452:	80 95       	com	r24
     454:	84 23       	and	r24, r20
     456:	90 96       	adiw	r26, 0x20	; 32
     458:	8c 93       	st	X, r24
     45a:	df 91       	pop	r29
     45c:	cf 91       	pop	r28
     45e:	08 95       	ret

00000460 <_ZN5MyLCD7commandEv>:
     460:	dc 01       	movw	r26, r24
     462:	15 96       	adiw	r26, 0x05	; 5
     464:	8c 91       	ld	r24, X
     466:	15 97       	sbiw	r26, 0x05	; 5
     468:	81 ff       	sbrs	r24, 1
     46a:	1e c0       	rjmp	.+60     	; 0x4a8 <_ZN5MyLCD7commandEv+0x48>
     46c:	14 96       	adiw	r26, 0x04	; 4
     46e:	ec 91       	ld	r30, X
     470:	14 97       	sbiw	r26, 0x04	; 4
     472:	8e 2f       	mov	r24, r30
     474:	82 95       	swap	r24
     476:	86 95       	lsr	r24
     478:	87 70       	andi	r24, 0x07	; 7
     47a:	15 96       	adiw	r26, 0x05	; 5
     47c:	ec 91       	ld	r30, X
     47e:	15 97       	sbiw	r26, 0x05	; 5
     480:	e1 70       	andi	r30, 0x01	; 1
     482:	ee 0f       	add	r30, r30
     484:	ee 0f       	add	r30, r30
     486:	ee 0f       	add	r30, r30
     488:	e8 2b       	or	r30, r24
     48a:	f0 e0       	ldi	r31, 0x00	; 0
     48c:	30 a1       	ldd	r19, Z+32	; 0x20
     48e:	2c 91       	ld	r18, X
     490:	27 70       	andi	r18, 0x07	; 7
     492:	81 e0       	ldi	r24, 0x01	; 1
     494:	90 e0       	ldi	r25, 0x00	; 0
     496:	02 c0       	rjmp	.+4      	; 0x49c <_ZN5MyLCD7commandEv+0x3c>
     498:	88 0f       	add	r24, r24
     49a:	99 1f       	adc	r25, r25
     49c:	2a 95       	dec	r18
     49e:	e2 f7       	brpl	.-8      	; 0x498 <_ZN5MyLCD7commandEv+0x38>
     4a0:	80 95       	com	r24
     4a2:	83 23       	and	r24, r19
     4a4:	80 a3       	std	Z+32, r24	; 0x20
     4a6:	08 95       	ret
     4a8:	14 96       	adiw	r26, 0x04	; 4
     4aa:	ec 91       	ld	r30, X
     4ac:	14 97       	sbiw	r26, 0x04	; 4
     4ae:	e6 95       	lsr	r30
     4b0:	ef 70       	andi	r30, 0x0F	; 15
     4b2:	f0 e0       	ldi	r31, 0x00	; 0
     4b4:	30 a1       	ldd	r19, Z+32	; 0x20
     4b6:	2c 91       	ld	r18, X
     4b8:	27 70       	andi	r18, 0x07	; 7
     4ba:	81 e0       	ldi	r24, 0x01	; 1
     4bc:	90 e0       	ldi	r25, 0x00	; 0
     4be:	02 c0       	rjmp	.+4      	; 0x4c4 <_ZN5MyLCD7commandEv+0x64>
     4c0:	88 0f       	add	r24, r24
     4c2:	99 1f       	adc	r25, r25
     4c4:	2a 95       	dec	r18
     4c6:	e2 f7       	brpl	.-8      	; 0x4c0 <_ZN5MyLCD7commandEv+0x60>
     4c8:	80 95       	com	r24
     4ca:	83 23       	and	r24, r19
     4cc:	80 a3       	std	Z+32, r24	; 0x20
     4ce:	08 95       	ret

000004d0 <_ZN5MyLCD4dataEv>:
     4d0:	dc 01       	movw	r26, r24
     4d2:	15 96       	adiw	r26, 0x05	; 5
     4d4:	8c 91       	ld	r24, X
     4d6:	15 97       	sbiw	r26, 0x05	; 5
     4d8:	81 ff       	sbrs	r24, 1
     4da:	1d c0       	rjmp	.+58     	; 0x516 <_ZN5MyLCD4dataEv+0x46>
     4dc:	14 96       	adiw	r26, 0x04	; 4
     4de:	ec 91       	ld	r30, X
     4e0:	14 97       	sbiw	r26, 0x04	; 4
     4e2:	8e 2f       	mov	r24, r30
     4e4:	82 95       	swap	r24
     4e6:	86 95       	lsr	r24
     4e8:	87 70       	andi	r24, 0x07	; 7
     4ea:	15 96       	adiw	r26, 0x05	; 5
     4ec:	ec 91       	ld	r30, X
     4ee:	15 97       	sbiw	r26, 0x05	; 5
     4f0:	e1 70       	andi	r30, 0x01	; 1
     4f2:	ee 0f       	add	r30, r30
     4f4:	ee 0f       	add	r30, r30
     4f6:	ee 0f       	add	r30, r30
     4f8:	e8 2b       	or	r30, r24
     4fa:	f0 e0       	ldi	r31, 0x00	; 0
     4fc:	30 a1       	ldd	r19, Z+32	; 0x20
     4fe:	2c 91       	ld	r18, X
     500:	27 70       	andi	r18, 0x07	; 7
     502:	81 e0       	ldi	r24, 0x01	; 1
     504:	90 e0       	ldi	r25, 0x00	; 0
     506:	02 c0       	rjmp	.+4      	; 0x50c <_ZN5MyLCD4dataEv+0x3c>
     508:	88 0f       	add	r24, r24
     50a:	99 1f       	adc	r25, r25
     50c:	2a 95       	dec	r18
     50e:	e2 f7       	brpl	.-8      	; 0x508 <_ZN5MyLCD4dataEv+0x38>
     510:	83 2b       	or	r24, r19
     512:	80 a3       	std	Z+32, r24	; 0x20
     514:	08 95       	ret
     516:	14 96       	adiw	r26, 0x04	; 4
     518:	ec 91       	ld	r30, X
     51a:	14 97       	sbiw	r26, 0x04	; 4
     51c:	e6 95       	lsr	r30
     51e:	ef 70       	andi	r30, 0x0F	; 15
     520:	f0 e0       	ldi	r31, 0x00	; 0
     522:	30 a1       	ldd	r19, Z+32	; 0x20
     524:	2c 91       	ld	r18, X
     526:	27 70       	andi	r18, 0x07	; 7
     528:	81 e0       	ldi	r24, 0x01	; 1
     52a:	90 e0       	ldi	r25, 0x00	; 0
     52c:	02 c0       	rjmp	.+4      	; 0x532 <_ZN5MyLCD4dataEv+0x62>
     52e:	88 0f       	add	r24, r24
     530:	99 1f       	adc	r25, r25
     532:	2a 95       	dec	r18
     534:	e2 f7       	brpl	.-8      	; 0x52e <_ZN5MyLCD4dataEv+0x5e>
     536:	83 2b       	or	r24, r19
     538:	80 a3       	std	Z+32, r24	; 0x20
     53a:	08 95       	ret

0000053c <_ZN5MyLCD10upperWriteEv>:
     53c:	fc 01       	movw	r30, r24
     53e:	86 81       	ldd	r24, Z+6	; 0x06
     540:	88 23       	and	r24, r24
     542:	ec f4       	brge	.+58     	; 0x57e <_ZN5MyLCD10upperWriteEv+0x42>
     544:	84 81       	ldd	r24, Z+4	; 0x04
     546:	a8 2f       	mov	r26, r24
     548:	a6 95       	lsr	r26
     54a:	af 70       	andi	r26, 0x0F	; 15
     54c:	b0 e0       	ldi	r27, 0x00	; 0
     54e:	90 96       	adiw	r26, 0x20	; 32
     550:	4c 91       	ld	r20, X
     552:	90 97       	sbiw	r26, 0x20	; 32
     554:	93 81       	ldd	r25, Z+3	; 0x03
     556:	92 95       	swap	r25
     558:	96 95       	lsr	r25
     55a:	96 95       	lsr	r25
     55c:	93 70       	andi	r25, 0x03	; 3
     55e:	81 70       	andi	r24, 0x01	; 1
     560:	88 0f       	add	r24, r24
     562:	88 0f       	add	r24, r24
     564:	98 2b       	or	r25, r24
     566:	21 e0       	ldi	r18, 0x01	; 1
     568:	30 e0       	ldi	r19, 0x00	; 0
     56a:	b9 01       	movw	r22, r18
     56c:	02 c0       	rjmp	.+4      	; 0x572 <_ZN5MyLCD10upperWriteEv+0x36>
     56e:	66 0f       	add	r22, r22
     570:	77 1f       	adc	r23, r23
     572:	9a 95       	dec	r25
     574:	e2 f7       	brpl	.-8      	; 0x56e <_ZN5MyLCD10upperWriteEv+0x32>
     576:	cb 01       	movw	r24, r22
     578:	84 2b       	or	r24, r20
     57a:	90 96       	adiw	r26, 0x20	; 32
     57c:	8c 93       	st	X, r24
     57e:	86 81       	ldd	r24, Z+6	; 0x06
     580:	86 ff       	sbrs	r24, 6
     582:	16 c0       	rjmp	.+44     	; 0x5b0 <_ZN5MyLCD10upperWriteEv+0x74>
     584:	a4 81       	ldd	r26, Z+4	; 0x04
     586:	a6 95       	lsr	r26
     588:	af 70       	andi	r26, 0x0F	; 15
     58a:	b0 e0       	ldi	r27, 0x00	; 0
     58c:	90 96       	adiw	r26, 0x20	; 32
     58e:	3c 91       	ld	r19, X
     590:	90 97       	sbiw	r26, 0x20	; 32
     592:	23 81       	ldd	r18, Z+3	; 0x03
     594:	26 95       	lsr	r18
     596:	26 95       	lsr	r18
     598:	26 95       	lsr	r18
     59a:	27 70       	andi	r18, 0x07	; 7
     59c:	81 e0       	ldi	r24, 0x01	; 1
     59e:	90 e0       	ldi	r25, 0x00	; 0
     5a0:	02 c0       	rjmp	.+4      	; 0x5a6 <_ZN5MyLCD10upperWriteEv+0x6a>
     5a2:	88 0f       	add	r24, r24
     5a4:	99 1f       	adc	r25, r25
     5a6:	2a 95       	dec	r18
     5a8:	e2 f7       	brpl	.-8      	; 0x5a2 <_ZN5MyLCD10upperWriteEv+0x66>
     5aa:	83 2b       	or	r24, r19
     5ac:	90 96       	adiw	r26, 0x20	; 32
     5ae:	8c 93       	st	X, r24
     5b0:	86 81       	ldd	r24, Z+6	; 0x06
     5b2:	85 ff       	sbrs	r24, 5
     5b4:	13 c0       	rjmp	.+38     	; 0x5dc <_ZN5MyLCD10upperWriteEv+0xa0>
     5b6:	a4 81       	ldd	r26, Z+4	; 0x04
     5b8:	a6 95       	lsr	r26
     5ba:	af 70       	andi	r26, 0x0F	; 15
     5bc:	b0 e0       	ldi	r27, 0x00	; 0
     5be:	90 96       	adiw	r26, 0x20	; 32
     5c0:	3c 91       	ld	r19, X
     5c2:	90 97       	sbiw	r26, 0x20	; 32
     5c4:	23 81       	ldd	r18, Z+3	; 0x03
     5c6:	27 70       	andi	r18, 0x07	; 7
     5c8:	81 e0       	ldi	r24, 0x01	; 1
     5ca:	90 e0       	ldi	r25, 0x00	; 0
     5cc:	02 c0       	rjmp	.+4      	; 0x5d2 <_ZN5MyLCD10upperWriteEv+0x96>
     5ce:	88 0f       	add	r24, r24
     5d0:	99 1f       	adc	r25, r25
     5d2:	2a 95       	dec	r18
     5d4:	e2 f7       	brpl	.-8      	; 0x5ce <_ZN5MyLCD10upperWriteEv+0x92>
     5d6:	83 2b       	or	r24, r19
     5d8:	90 96       	adiw	r26, 0x20	; 32
     5da:	8c 93       	st	X, r24
     5dc:	86 81       	ldd	r24, Z+6	; 0x06
     5de:	84 ff       	sbrs	r24, 4
     5e0:	15 c0       	rjmp	.+42     	; 0x60c <_ZN5MyLCD10upperWriteEv+0xd0>
     5e2:	a4 81       	ldd	r26, Z+4	; 0x04
     5e4:	a6 95       	lsr	r26
     5e6:	af 70       	andi	r26, 0x0F	; 15
     5e8:	b0 e0       	ldi	r27, 0x00	; 0
     5ea:	90 96       	adiw	r26, 0x20	; 32
     5ec:	3c 91       	ld	r19, X
     5ee:	90 97       	sbiw	r26, 0x20	; 32
     5f0:	22 81       	ldd	r18, Z+2	; 0x02
     5f2:	22 95       	swap	r18
     5f4:	26 95       	lsr	r18
     5f6:	27 70       	andi	r18, 0x07	; 7
     5f8:	81 e0       	ldi	r24, 0x01	; 1
     5fa:	90 e0       	ldi	r25, 0x00	; 0
     5fc:	02 c0       	rjmp	.+4      	; 0x602 <_ZN5MyLCD10upperWriteEv+0xc6>
     5fe:	88 0f       	add	r24, r24
     600:	99 1f       	adc	r25, r25
     602:	2a 95       	dec	r18
     604:	e2 f7       	brpl	.-8      	; 0x5fe <_ZN5MyLCD10upperWriteEv+0xc2>
     606:	83 2b       	or	r24, r19
     608:	90 96       	adiw	r26, 0x20	; 32
     60a:	8c 93       	st	X, r24
     60c:	08 95       	ret

0000060e <_ZN5MyLCD10lowerWriteEv>:
     60e:	fc 01       	movw	r30, r24
     610:	85 81       	ldd	r24, Z+5	; 0x05
     612:	81 ff       	sbrs	r24, 1
     614:	65 c0       	rjmp	.+202    	; 0x6e0 <_ZN5MyLCD10lowerWriteEv+0xd2>
     616:	86 81       	ldd	r24, Z+6	; 0x06
     618:	83 ff       	sbrs	r24, 3
     61a:	15 c0       	rjmp	.+42     	; 0x646 <_ZN5MyLCD10lowerWriteEv+0x38>
     61c:	a4 81       	ldd	r26, Z+4	; 0x04
     61e:	a6 95       	lsr	r26
     620:	af 70       	andi	r26, 0x0F	; 15
     622:	b0 e0       	ldi	r27, 0x00	; 0
     624:	90 96       	adiw	r26, 0x20	; 32
     626:	3c 91       	ld	r19, X
     628:	90 97       	sbiw	r26, 0x20	; 32
     62a:	22 81       	ldd	r18, Z+2	; 0x02
     62c:	26 95       	lsr	r18
     62e:	26 95       	lsr	r18
     630:	27 70       	andi	r18, 0x07	; 7
     632:	81 e0       	ldi	r24, 0x01	; 1
     634:	90 e0       	ldi	r25, 0x00	; 0
     636:	02 c0       	rjmp	.+4      	; 0x63c <_ZN5MyLCD10lowerWriteEv+0x2e>
     638:	88 0f       	add	r24, r24
     63a:	99 1f       	adc	r25, r25
     63c:	2a 95       	dec	r18
     63e:	e2 f7       	brpl	.-8      	; 0x638 <_ZN5MyLCD10lowerWriteEv+0x2a>
     640:	83 2b       	or	r24, r19
     642:	90 96       	adiw	r26, 0x20	; 32
     644:	8c 93       	st	X, r24
     646:	86 81       	ldd	r24, Z+6	; 0x06
     648:	82 ff       	sbrs	r24, 2
     64a:	1a c0       	rjmp	.+52     	; 0x680 <_ZN5MyLCD10lowerWriteEv+0x72>
     64c:	a4 81       	ldd	r26, Z+4	; 0x04
     64e:	a6 95       	lsr	r26
     650:	af 70       	andi	r26, 0x0F	; 15
     652:	b0 e0       	ldi	r27, 0x00	; 0
     654:	90 96       	adiw	r26, 0x20	; 32
     656:	3c 91       	ld	r19, X
     658:	90 97       	sbiw	r26, 0x20	; 32
     65a:	21 81       	ldd	r18, Z+1	; 0x01
     65c:	92 2f       	mov	r25, r18
     65e:	99 1f       	adc	r25, r25
     660:	99 27       	eor	r25, r25
     662:	99 1f       	adc	r25, r25
     664:	22 81       	ldd	r18, Z+2	; 0x02
     666:	23 70       	andi	r18, 0x03	; 3
     668:	22 0f       	add	r18, r18
     66a:	29 2b       	or	r18, r25
     66c:	81 e0       	ldi	r24, 0x01	; 1
     66e:	90 e0       	ldi	r25, 0x00	; 0
     670:	02 c0       	rjmp	.+4      	; 0x676 <_ZN5MyLCD10lowerWriteEv+0x68>
     672:	88 0f       	add	r24, r24
     674:	99 1f       	adc	r25, r25
     676:	2a 95       	dec	r18
     678:	e2 f7       	brpl	.-8      	; 0x672 <_ZN5MyLCD10lowerWriteEv+0x64>
     67a:	83 2b       	or	r24, r19
     67c:	90 96       	adiw	r26, 0x20	; 32
     67e:	8c 93       	st	X, r24
     680:	86 81       	ldd	r24, Z+6	; 0x06
     682:	81 ff       	sbrs	r24, 1
     684:	15 c0       	rjmp	.+42     	; 0x6b0 <_ZN5MyLCD10lowerWriteEv+0xa2>
     686:	a4 81       	ldd	r26, Z+4	; 0x04
     688:	a6 95       	lsr	r26
     68a:	af 70       	andi	r26, 0x0F	; 15
     68c:	b0 e0       	ldi	r27, 0x00	; 0
     68e:	90 96       	adiw	r26, 0x20	; 32
     690:	3c 91       	ld	r19, X
     692:	90 97       	sbiw	r26, 0x20	; 32
     694:	21 81       	ldd	r18, Z+1	; 0x01
     696:	22 95       	swap	r18
     698:	2f 70       	andi	r18, 0x0F	; 15
     69a:	27 70       	andi	r18, 0x07	; 7
     69c:	81 e0       	ldi	r24, 0x01	; 1
     69e:	90 e0       	ldi	r25, 0x00	; 0
     6a0:	02 c0       	rjmp	.+4      	; 0x6a6 <_ZN5MyLCD10lowerWriteEv+0x98>
     6a2:	88 0f       	add	r24, r24
     6a4:	99 1f       	adc	r25, r25
     6a6:	2a 95       	dec	r18
     6a8:	e2 f7       	brpl	.-8      	; 0x6a2 <_ZN5MyLCD10lowerWriteEv+0x94>
     6aa:	83 2b       	or	r24, r19
     6ac:	90 96       	adiw	r26, 0x20	; 32
     6ae:	8c 93       	st	X, r24
     6b0:	86 81       	ldd	r24, Z+6	; 0x06
     6b2:	80 ff       	sbrs	r24, 0
     6b4:	1c c0       	rjmp	.+56     	; 0x6ee <_ZN5MyLCD10lowerWriteEv+0xe0>
     6b6:	a4 81       	ldd	r26, Z+4	; 0x04
     6b8:	a6 95       	lsr	r26
     6ba:	af 70       	andi	r26, 0x0F	; 15
     6bc:	b0 e0       	ldi	r27, 0x00	; 0
     6be:	90 96       	adiw	r26, 0x20	; 32
     6c0:	3c 91       	ld	r19, X
     6c2:	90 97       	sbiw	r26, 0x20	; 32
     6c4:	21 81       	ldd	r18, Z+1	; 0x01
     6c6:	26 95       	lsr	r18
     6c8:	27 70       	andi	r18, 0x07	; 7
     6ca:	81 e0       	ldi	r24, 0x01	; 1
     6cc:	90 e0       	ldi	r25, 0x00	; 0
     6ce:	02 c0       	rjmp	.+4      	; 0x6d4 <_ZN5MyLCD10lowerWriteEv+0xc6>
     6d0:	88 0f       	add	r24, r24
     6d2:	99 1f       	adc	r25, r25
     6d4:	2a 95       	dec	r18
     6d6:	e2 f7       	brpl	.-8      	; 0x6d0 <_ZN5MyLCD10lowerWriteEv+0xc2>
     6d8:	83 2b       	or	r24, r19
     6da:	90 96       	adiw	r26, 0x20	; 32
     6dc:	8c 93       	st	X, r24
     6de:	08 95       	ret
     6e0:	86 81       	ldd	r24, Z+6	; 0x06
     6e2:	82 95       	swap	r24
     6e4:	80 7f       	andi	r24, 0xF0	; 240
     6e6:	86 83       	std	Z+6, r24	; 0x06
     6e8:	cf 01       	movw	r24, r30
     6ea:	0e 94 9e 02 	call	0x53c	; 0x53c <_ZN5MyLCD10upperWriteEv>
     6ee:	08 95       	ret

000006f0 <_ZN5MyLCD9fullWriteEv>:
     6f0:	cf 93       	push	r28
     6f2:	df 93       	push	r29
     6f4:	ec 01       	movw	r28, r24
     6f6:	0e 94 9e 02 	call	0x53c	; 0x53c <_ZN5MyLCD10upperWriteEv>
     6fa:	ce 01       	movw	r24, r28
     6fc:	0e 94 07 03 	call	0x60e	; 0x60e <_ZN5MyLCD10lowerWriteEv>
     700:	df 91       	pop	r29
     702:	cf 91       	pop	r28
     704:	08 95       	ret

00000706 <_ZN5MyLCD9writeCharEc>:
     706:	cf 93       	push	r28
     708:	df 93       	push	r29
     70a:	ec 01       	movw	r28, r24
     70c:	6e 83       	std	Y+6, r22	; 0x06
     70e:	8d 81       	ldd	r24, Y+5	; 0x05
     710:	81 ff       	sbrs	r24, 1
     712:	25 c0       	rjmp	.+74     	; 0x75e <_ZN5MyLCD9writeCharEc+0x58>
     714:	82 ff       	sbrs	r24, 2
     716:	1c c0       	rjmp	.+56     	; 0x750 <_ZN5MyLCD9writeCharEc+0x4a>
     718:	ec 81       	ldd	r30, Y+4	; 0x04
     71a:	8e 2f       	mov	r24, r30
     71c:	82 95       	swap	r24
     71e:	86 95       	lsr	r24
     720:	87 70       	andi	r24, 0x07	; 7
     722:	ed 81       	ldd	r30, Y+5	; 0x05
     724:	e1 70       	andi	r30, 0x01	; 1
     726:	ee 0f       	add	r30, r30
     728:	ee 0f       	add	r30, r30
     72a:	ee 0f       	add	r30, r30
     72c:	e8 2b       	or	r30, r24
     72e:	f0 e0       	ldi	r31, 0x00	; 0
     730:	30 a1       	ldd	r19, Z+32	; 0x20
     732:	28 81       	ld	r18, Y
     734:	26 95       	lsr	r18
     736:	26 95       	lsr	r18
     738:	26 95       	lsr	r18
     73a:	27 70       	andi	r18, 0x07	; 7
     73c:	81 e0       	ldi	r24, 0x01	; 1
     73e:	90 e0       	ldi	r25, 0x00	; 0
     740:	02 c0       	rjmp	.+4      	; 0x746 <_ZN5MyLCD9writeCharEc+0x40>
     742:	88 0f       	add	r24, r24
     744:	99 1f       	adc	r25, r25
     746:	2a 95       	dec	r18
     748:	e2 f7       	brpl	.-8      	; 0x742 <_ZN5MyLCD9writeCharEc+0x3c>
     74a:	80 95       	com	r24
     74c:	83 23       	and	r24, r19
     74e:	80 a3       	std	Z+32, r24	; 0x20
     750:	ce 01       	movw	r24, r28
     752:	0e 94 78 03 	call	0x6f0	; 0x6f0 <_ZN5MyLCD9fullWriteEv>
     756:	ce 01       	movw	r24, r28
     758:	0e 94 46 01 	call	0x28c	; 0x28c <_ZN5MyLCD4sendEv>
     75c:	2a c0       	rjmp	.+84     	; 0x7b2 <_ZN5MyLCD9writeCharEc+0xac>
     75e:	82 ff       	sbrs	r24, 2
     760:	1c c0       	rjmp	.+56     	; 0x79a <_ZN5MyLCD9writeCharEc+0x94>
     762:	ec 81       	ldd	r30, Y+4	; 0x04
     764:	8e 2f       	mov	r24, r30
     766:	82 95       	swap	r24
     768:	86 95       	lsr	r24
     76a:	87 70       	andi	r24, 0x07	; 7
     76c:	ed 81       	ldd	r30, Y+5	; 0x05
     76e:	e1 70       	andi	r30, 0x01	; 1
     770:	ee 0f       	add	r30, r30
     772:	ee 0f       	add	r30, r30
     774:	ee 0f       	add	r30, r30
     776:	e8 2b       	or	r30, r24
     778:	f0 e0       	ldi	r31, 0x00	; 0
     77a:	30 a1       	ldd	r19, Z+32	; 0x20
     77c:	28 81       	ld	r18, Y
     77e:	26 95       	lsr	r18
     780:	26 95       	lsr	r18
     782:	26 95       	lsr	r18
     784:	27 70       	andi	r18, 0x07	; 7
     786:	81 e0       	ldi	r24, 0x01	; 1
     788:	90 e0       	ldi	r25, 0x00	; 0
     78a:	02 c0       	rjmp	.+4      	; 0x790 <_ZN5MyLCD9writeCharEc+0x8a>
     78c:	88 0f       	add	r24, r24
     78e:	99 1f       	adc	r25, r25
     790:	2a 95       	dec	r18
     792:	e2 f7       	brpl	.-8      	; 0x78c <_ZN5MyLCD9writeCharEc+0x86>
     794:	80 95       	com	r24
     796:	83 23       	and	r24, r19
     798:	80 a3       	std	Z+32, r24	; 0x20
     79a:	ce 01       	movw	r24, r28
     79c:	0e 94 9e 02 	call	0x53c	; 0x53c <_ZN5MyLCD10upperWriteEv>
     7a0:	ce 01       	movw	r24, r28
     7a2:	0e 94 46 01 	call	0x28c	; 0x28c <_ZN5MyLCD4sendEv>
     7a6:	ce 01       	movw	r24, r28
     7a8:	0e 94 07 03 	call	0x60e	; 0x60e <_ZN5MyLCD10lowerWriteEv>
     7ac:	ce 01       	movw	r24, r28
     7ae:	0e 94 46 01 	call	0x28c	; 0x28c <_ZN5MyLCD4sendEv>
     7b2:	df 91       	pop	r29
     7b4:	cf 91       	pop	r28
     7b6:	08 95       	ret

000007b8 <_ZN5MyLCD5clearEv>:
     7b8:	cf 93       	push	r28
     7ba:	df 93       	push	r29
     7bc:	ec 01       	movw	r28, r24
     7be:	0e 94 30 02 	call	0x460	; 0x460 <_ZN5MyLCD7commandEv>
     7c2:	61 e0       	ldi	r22, 0x01	; 1
     7c4:	ce 01       	movw	r24, r28
     7c6:	0e 94 83 03 	call	0x706	; 0x706 <_ZN5MyLCD9writeCharEc>
     7ca:	84 e0       	ldi	r24, 0x04	; 4
     7cc:	8a 95       	dec	r24
     7ce:	f1 f7       	brne	.-4      	; 0x7cc <_ZN5MyLCD5clearEv+0x14>
     7d0:	00 c0       	rjmp	.+0      	; 0x7d2 <_ZN5MyLCD5clearEv+0x1a>
     7d2:	df 91       	pop	r29
     7d4:	cf 91       	pop	r28
     7d6:	08 95       	ret

000007d8 <_ZN5MyLCD11printStringEPc>:
     7d8:	ff 92       	push	r15
     7da:	0f 93       	push	r16
     7dc:	1f 93       	push	r17
     7de:	cf 93       	push	r28
     7e0:	df 93       	push	r29
     7e2:	8c 01       	movw	r16, r24
     7e4:	eb 01       	movw	r28, r22
     7e6:	0e 94 68 02 	call	0x4d0	; 0x4d0 <_ZN5MyLCD4dataEv>
     7ea:	f1 2c       	mov	r15, r1
     7ec:	08 c0       	rjmp	.+16     	; 0x7fe <_ZN5MyLCD11printStringEPc+0x26>
     7ee:	fe 01       	movw	r30, r28
     7f0:	e2 0f       	add	r30, r18
     7f2:	f3 1f       	adc	r31, r19
     7f4:	60 81       	ld	r22, Z
     7f6:	c8 01       	movw	r24, r16
     7f8:	0e 94 83 03 	call	0x706	; 0x706 <_ZN5MyLCD9writeCharEc>
     7fc:	f3 94       	inc	r15
     7fe:	2f 2d       	mov	r18, r15
     800:	30 e0       	ldi	r19, 0x00	; 0
     802:	fe 01       	movw	r30, r28
     804:	01 90       	ld	r0, Z+
     806:	00 20       	and	r0, r0
     808:	e9 f7       	brne	.-6      	; 0x804 <_ZN5MyLCD11printStringEPc+0x2c>
     80a:	31 97       	sbiw	r30, 0x01	; 1
     80c:	ec 1b       	sub	r30, r28
     80e:	fd 0b       	sbc	r31, r29
     810:	2e 17       	cp	r18, r30
     812:	3f 07       	cpc	r19, r31
     814:	60 f3       	brcs	.-40     	; 0x7ee <_ZN5MyLCD11printStringEPc+0x16>
     816:	df 91       	pop	r29
     818:	cf 91       	pop	r28
     81a:	1f 91       	pop	r17
     81c:	0f 91       	pop	r16
     81e:	ff 90       	pop	r15
     820:	08 95       	ret

00000822 <_ZN5MyLCD5printEPKcz>:
     822:	cf 93       	push	r28
     824:	df 93       	push	r29
     826:	cd b7       	in	r28, 0x3d	; 61
     828:	de b7       	in	r29, 0x3e	; 62
     82a:	ae 01       	movw	r20, r28
     82c:	47 5f       	subi	r20, 0xF7	; 247
     82e:	5f 4f       	sbci	r21, 0xFF	; 255
     830:	6f 81       	ldd	r22, Y+7	; 0x07
     832:	78 85       	ldd	r23, Y+8	; 0x08
     834:	82 e1       	ldi	r24, 0x12	; 18
     836:	91 e0       	ldi	r25, 0x01	; 1
     838:	0e 94 4f 05 	call	0xa9e	; 0xa9e <vsprintf>
     83c:	62 e1       	ldi	r22, 0x12	; 18
     83e:	71 e0       	ldi	r23, 0x01	; 1
     840:	8d 81       	ldd	r24, Y+5	; 0x05
     842:	9e 81       	ldd	r25, Y+6	; 0x06
     844:	0e 94 ec 03 	call	0x7d8	; 0x7d8 <_ZN5MyLCD11printStringEPc>
     848:	df 91       	pop	r29
     84a:	cf 91       	pop	r28
     84c:	08 95       	ret

0000084e <_ZN5MyLCD4initEhbbb>:
     84e:	0f 93       	push	r16
     850:	1f 93       	push	r17
     852:	cf 93       	push	r28
     854:	df 93       	push	r29
     856:	ec 01       	movw	r28, r24
     858:	8d 81       	ldd	r24, Y+5	; 0x05
     85a:	81 fb       	bst	r24, 1
     85c:	ee 27       	eor	r30, r30
     85e:	e0 f9       	bld	r30, 0
     860:	f0 e0       	ldi	r31, 0x00	; 0
     862:	8a 81       	ldd	r24, Y+2	; 0x02
     864:	98 2f       	mov	r25, r24
     866:	92 95       	swap	r25
     868:	96 95       	lsr	r25
     86a:	97 70       	andi	r25, 0x07	; 7
     86c:	02 c0       	rjmp	.+4      	; 0x872 <_ZN5MyLCD4initEhbbb+0x24>
     86e:	ee 0f       	add	r30, r30
     870:	ff 1f       	adc	r31, r31
     872:	9a 95       	dec	r25
     874:	e2 f7       	brpl	.-8      	; 0x86e <_ZN5MyLCD4initEhbbb+0x20>
     876:	e0 62       	ori	r30, 0x20	; 32
     878:	99 81       	ldd	r25, Y+1	; 0x01
     87a:	39 2f       	mov	r19, r25
     87c:	33 1f       	adc	r19, r19
     87e:	33 27       	eor	r19, r19
     880:	33 1f       	adc	r19, r19
     882:	98 2f       	mov	r25, r24
     884:	93 70       	andi	r25, 0x03	; 3
     886:	99 0f       	add	r25, r25
     888:	93 2b       	or	r25, r19
     88a:	01 c0       	rjmp	.+2      	; 0x88e <_ZN5MyLCD4initEhbbb+0x40>
     88c:	00 0f       	add	r16, r16
     88e:	9a 95       	dec	r25
     890:	ea f7       	brpl	.-6      	; 0x88c <_ZN5MyLCD4initEhbbb+0x3e>
     892:	e0 2b       	or	r30, r16
     894:	0f ef       	ldi	r16, 0xFF	; 255
     896:	06 0f       	add	r16, r22
     898:	86 95       	lsr	r24
     89a:	86 95       	lsr	r24
     89c:	87 70       	andi	r24, 0x07	; 7
     89e:	01 c0       	rjmp	.+2      	; 0x8a2 <_ZN5MyLCD4initEhbbb+0x54>
     8a0:	00 0f       	add	r16, r16
     8a2:	8a 95       	dec	r24
     8a4:	ea f7       	brpl	.-6      	; 0x8a0 <_ZN5MyLCD4initEhbbb+0x52>
     8a6:	0e 2b       	or	r16, r30
     8a8:	2c 60       	ori	r18, 0x0C	; 12
     8aa:	44 0f       	add	r20, r20
     8ac:	14 2f       	mov	r17, r20
     8ae:	12 2b       	or	r17, r18
     8b0:	ce 01       	movw	r24, r28
     8b2:	0e 94 30 02 	call	0x460	; 0x460 <_ZN5MyLCD7commandEv>
     8b6:	8d 81       	ldd	r24, Y+5	; 0x05
     8b8:	81 fd       	sbrc	r24, 1
     8ba:	13 c0       	rjmp	.+38     	; 0x8e2 <_ZN5MyLCD4initEhbbb+0x94>
     8bc:	ec 81       	ldd	r30, Y+4	; 0x04
     8be:	e6 95       	lsr	r30
     8c0:	ef 70       	andi	r30, 0x0F	; 15
     8c2:	f0 e0       	ldi	r31, 0x00	; 0
     8c4:	30 a1       	ldd	r19, Z+32	; 0x20
     8c6:	2b 81       	ldd	r18, Y+3	; 0x03
     8c8:	27 70       	andi	r18, 0x07	; 7
     8ca:	81 e0       	ldi	r24, 0x01	; 1
     8cc:	90 e0       	ldi	r25, 0x00	; 0
     8ce:	02 c0       	rjmp	.+4      	; 0x8d4 <_ZN5MyLCD4initEhbbb+0x86>
     8d0:	88 0f       	add	r24, r24
     8d2:	99 1f       	adc	r25, r25
     8d4:	2a 95       	dec	r18
     8d6:	e2 f7       	brpl	.-8      	; 0x8d0 <_ZN5MyLCD4initEhbbb+0x82>
     8d8:	83 2b       	or	r24, r19
     8da:	80 a3       	std	Z+32, r24	; 0x20
     8dc:	ce 01       	movw	r24, r28
     8de:	0e 94 46 01 	call	0x28c	; 0x28c <_ZN5MyLCD4sendEv>
     8e2:	60 2f       	mov	r22, r16
     8e4:	ce 01       	movw	r24, r28
     8e6:	0e 94 83 03 	call	0x706	; 0x706 <_ZN5MyLCD9writeCharEc>
     8ea:	61 2f       	mov	r22, r17
     8ec:	ce 01       	movw	r24, r28
     8ee:	0e 94 83 03 	call	0x706	; 0x706 <_ZN5MyLCD9writeCharEc>
     8f2:	ce 01       	movw	r24, r28
     8f4:	0e 94 dc 03 	call	0x7b8	; 0x7b8 <_ZN5MyLCD5clearEv>
     8f8:	df 91       	pop	r29
     8fa:	cf 91       	pop	r28
     8fc:	1f 91       	pop	r17
     8fe:	0f 91       	pop	r16
     900:	08 95       	ret

00000902 <_ZN5MyLCD9setCursorEbh>:
     902:	0f 93       	push	r16
     904:	1f 93       	push	r17
     906:	cf 93       	push	r28
     908:	8c 01       	movw	r16, r24
     90a:	c4 2f       	mov	r28, r20
     90c:	80 e4       	ldi	r24, 0x40	; 64
     90e:	68 9f       	mul	r22, r24
     910:	c0 0d       	add	r28, r0
     912:	11 24       	eor	r1, r1
     914:	c8 01       	movw	r24, r16
     916:	0e 94 30 02 	call	0x460	; 0x460 <_ZN5MyLCD7commandEv>
     91a:	6c 2f       	mov	r22, r28
     91c:	60 68       	ori	r22, 0x80	; 128
     91e:	c8 01       	movw	r24, r16
     920:	0e 94 83 03 	call	0x706	; 0x706 <_ZN5MyLCD9writeCharEc>
     924:	cf 91       	pop	r28
     926:	1f 91       	pop	r17
     928:	0f 91       	pop	r16
     92a:	08 95       	ret

0000092c <_ZN5MyLCD11defineGraphEPch>:


uint8_t MyLCD::defineGraph(char graph[8], uint8_t address){
     92c:	ef 92       	push	r14
     92e:	ff 92       	push	r15
     930:	0f 93       	push	r16
     932:	1f 93       	push	r17
     934:	cf 93       	push	r28
     936:	df 93       	push	r29
     938:	7c 01       	movw	r14, r24
     93a:	8b 01       	movw	r16, r22
	static uint8_t idx=0x40;		//this is the first address we can save a new char in
	if(address){
     93c:	44 23       	and	r20, r20
     93e:	31 f0       	breq	.+12     	; 0x94c <_ZN5MyLCD11defineGraphEPch+0x20>
		idx = 0x40 + address*8;
     940:	44 0f       	add	r20, r20
     942:	44 0f       	add	r20, r20
     944:	44 0f       	add	r20, r20
     946:	40 5c       	subi	r20, 0xC0	; 192
     948:	40 93 00 01 	sts	0x0100, r20	; 0x800100 <__data_start>
	
	if(idx >= 0x80){				//you have defined 8 new characters which is the max number on new charachters that can be defined
		//return -1;				//return error (0xff)
	}
	
	command();
     94c:	c7 01       	movw	r24, r14
     94e:	0e 94 30 02 	call	0x460	; 0x460 <_ZN5MyLCD7commandEv>
	writeChar(idx);
     952:	60 91 00 01 	lds	r22, 0x0100	; 0x800100 <__data_start>
     956:	c7 01       	movw	r24, r14
     958:	0e 94 83 03 	call	0x706	; 0x706 <_ZN5MyLCD9writeCharEc>
	
	data();
     95c:	c7 01       	movw	r24, r14
     95e:	0e 94 68 02 	call	0x4d0	; 0x4d0 <_ZN5MyLCD4dataEv>
     962:	e8 01       	movw	r28, r16
     964:	08 5f       	subi	r16, 0xF8	; 248
     966:	1f 4f       	sbci	r17, 0xFF	; 255
	for(uint8_t i=0; i<8;i++){
		writeChar(graph[i]);
     968:	69 91       	ld	r22, Y+
     96a:	c7 01       	movw	r24, r14
     96c:	0e 94 83 03 	call	0x706	; 0x706 <_ZN5MyLCD9writeCharEc>
	
	command();
	writeChar(idx);
	
	data();
	for(uint8_t i=0; i<8;i++){
     970:	c0 17       	cp	r28, r16
     972:	d1 07       	cpc	r29, r17
     974:	c9 f7       	brne	.-14     	; 0x968 <_ZN5MyLCD11defineGraphEPch+0x3c>
		writeChar(graph[i]);
	}
	
	idx+=8;
     976:	20 91 00 01 	lds	r18, 0x0100	; 0x800100 <__data_start>
     97a:	28 5f       	subi	r18, 0xF8	; 248
     97c:	20 93 00 01 	sts	0x0100, r18	; 0x800100 <__data_start>
	return (idx-0x40)/8 -1;				//return the address which you can use to print the char you defined
     980:	30 e0       	ldi	r19, 0x00	; 0
     982:	20 54       	subi	r18, 0x40	; 64
     984:	31 09       	sbc	r19, r1
     986:	c9 01       	movw	r24, r18
     988:	99 23       	and	r25, r25
     98a:	0c f4       	brge	.+2      	; 0x98e <_ZN5MyLCD11defineGraphEPch+0x62>
     98c:	07 96       	adiw	r24, 0x07	; 7
     98e:	95 95       	asr	r25
     990:	87 95       	ror	r24
     992:	95 95       	asr	r25
     994:	87 95       	ror	r24
     996:	95 95       	asr	r25
     998:	87 95       	ror	r24
     99a:	81 50       	subi	r24, 0x01	; 1
     99c:	df 91       	pop	r29
     99e:	cf 91       	pop	r28
     9a0:	1f 91       	pop	r17
     9a2:	0f 91       	pop	r16
     9a4:	ff 90       	pop	r15
     9a6:	ef 90       	pop	r14
     9a8:	08 95       	ret

000009aa <main>:
#include "LCD.h"
#include <util/delay.h>
#include "string.h"
#include <stdio.h>

int main(void){
     9aa:	cf 93       	push	r28
     9ac:	df 93       	push	r29
     9ae:	cd b7       	in	r28, 0x3d	; 61
     9b0:	de b7       	in	r29, 0x3e	; 62
     9b2:	65 97       	sbiw	r28, 0x15	; 21
     9b4:	0f b6       	in	r0, 0x3f	; 63
     9b6:	f8 94       	cli
     9b8:	de bf       	out	0x3e, r29	; 62
     9ba:	0f be       	out	0x3f, r0	; 63
     9bc:	cd bf       	out	0x3d, r28	; 61
    /* Replace with your application code */
	//MyLCD lcd('D',7,6,5,4,3,2,1,0,'B',0,1);
	MyLCD lcd('D',7,6,5,4,3,2);
     9be:	4e 01       	movw	r8, r28
     9c0:	8f e0       	ldi	r24, 0x0F	; 15
     9c2:	88 0e       	add	r8, r24
     9c4:	91 1c       	adc	r9, r1
     9c6:	68 94       	set
     9c8:	aa 24       	eor	r10, r10
     9ca:	a1 f8       	bld	r10, 1
     9cc:	0f 2e       	mov	r0, r31
     9ce:	f3 e0       	ldi	r31, 0x03	; 3
     9d0:	cf 2e       	mov	r12, r31
     9d2:	f0 2d       	mov	r31, r0
     9d4:	68 94       	set
     9d6:	ee 24       	eor	r14, r14
     9d8:	e2 f8       	bld	r14, 2
     9da:	05 e0       	ldi	r16, 0x05	; 5
     9dc:	26 e0       	ldi	r18, 0x06	; 6
     9de:	47 e0       	ldi	r20, 0x07	; 7
     9e0:	64 e4       	ldi	r22, 0x44	; 68
     9e2:	c4 01       	movw	r24, r8
     9e4:	0e 94 53 00 	call	0xa6	; 0xa6 <_ZN5MyLCDC1Echhhhhh>
	//_delay_ms(10);
	lcd.init(2,1,0);
     9e8:	00 e0       	ldi	r16, 0x00	; 0
     9ea:	20 e0       	ldi	r18, 0x00	; 0
     9ec:	41 e0       	ldi	r20, 0x01	; 1
     9ee:	62 e0       	ldi	r22, 0x02	; 2
     9f0:	c4 01       	movw	r24, r8
     9f2:	0e 94 27 04 	call	0x84e	; 0x84e <_ZN5MyLCD4initEhbbb>
	//char temp='0';
	//bool line=0;
	int x=0;
	//lcd.writeDirecion(0,0,0);
	//lcd.print("anas ahmed fouad hassan khedr");
	lcd.command();
     9f6:	c4 01       	movw	r24, r8
     9f8:	0e 94 30 02 	call	0x460	; 0x460 <_ZN5MyLCD7commandEv>
	{
		float x;
		char y;
	};
	
	lcd.command();
     9fc:	c4 01       	movw	r24, r8
     9fe:	0e 94 30 02 	call	0x460	; 0x460 <_ZN5MyLCD7commandEv>
	lcd.clear();
     a02:	c4 01       	movw	r24, r8
     a04:	0e 94 dc 03 	call	0x7b8	; 0x7b8 <_ZN5MyLCD5clearEv>
	lcd.setCursor(0,0);
     a08:	40 e0       	ldi	r20, 0x00	; 0
     a0a:	60 e0       	ldi	r22, 0x00	; 0
     a0c:	c4 01       	movw	r24, r8
     a0e:	0e 94 81 04 	call	0x902	; 0x902 <_ZN5MyLCD9setCursorEbh>
	lcd.command();
	lcd.setCursor(0,0);
	lcd.data();
	lcd.writeChar((uint8_t)0);
	*/
	char customChar[7] = {14,27,24,30,27,27,14	};
     a12:	87 e0       	ldi	r24, 0x07	; 7
     a14:	e1 e0       	ldi	r30, 0x01	; 1
     a16:	f1 e0       	ldi	r31, 0x01	; 1
     a18:	de 01       	movw	r26, r28
     a1a:	18 96       	adiw	r26, 0x08	; 8
     a1c:	01 90       	ld	r0, Z+
     a1e:	0d 92       	st	X+, r0
     a20:	8a 95       	dec	r24
     a22:	e1 f7       	brne	.-8      	; 0xa1c <main+0x72>
	
	uint8_t d_ch=lcd.defineGraph(customChar);
     a24:	40 e0       	ldi	r20, 0x00	; 0
     a26:	be 01       	movw	r22, r28
     a28:	68 5f       	subi	r22, 0xF8	; 248
     a2a:	7f 4f       	sbci	r23, 0xFF	; 255
     a2c:	c4 01       	movw	r24, r8
     a2e:	0e 94 96 04 	call	0x92c	; 0x92c <_ZN5MyLCD11defineGraphEPch>
     a32:	18 2f       	mov	r17, r24
	char customChar2[] = {10,10,31,31,14,4,4};
     a34:	87 e0       	ldi	r24, 0x07	; 7
     a36:	e8 e0       	ldi	r30, 0x08	; 8
     a38:	f1 e0       	ldi	r31, 0x01	; 1
     a3a:	de 01       	movw	r26, r28
     a3c:	11 96       	adiw	r26, 0x01	; 1
     a3e:	01 90       	ld	r0, Z+
     a40:	0d 92       	st	X+, r0
     a42:	8a 95       	dec	r24
     a44:	e1 f7       	brne	.-8      	; 0xa3e <main+0x94>
	uint8_t d_ch2=lcd.defineGraph(customChar2);
     a46:	40 e0       	ldi	r20, 0x00	; 0
     a48:	be 01       	movw	r22, r28
     a4a:	6f 5f       	subi	r22, 0xFF	; 255
     a4c:	7f 4f       	sbci	r23, 0xFF	; 255
     a4e:	c4 01       	movw	r24, r8
     a50:	0e 94 96 04 	call	0x92c	; 0x92c <_ZN5MyLCD11defineGraphEPch>
     a54:	08 2f       	mov	r16, r24
	lcd.command();
     a56:	c4 01       	movw	r24, r8
     a58:	0e 94 30 02 	call	0x460	; 0x460 <_ZN5MyLCD7commandEv>
	lcd.setCursor(0,0);
     a5c:	40 e0       	ldi	r20, 0x00	; 0
     a5e:	60 e0       	ldi	r22, 0x00	; 0
     a60:	c4 01       	movw	r24, r8
     a62:	0e 94 81 04 	call	0x902	; 0x902 <_ZN5MyLCD9setCursorEbh>
	lcd.data();
     a66:	c4 01       	movw	r24, r8
     a68:	0e 94 68 02 	call	0x4d0	; 0x4d0 <_ZN5MyLCD4dataEv>
	lcd.print("%d",(int)d_ch);
     a6c:	1f 92       	push	r1
     a6e:	1f 93       	push	r17
     a70:	2f e0       	ldi	r18, 0x0F	; 15
     a72:	31 e0       	ldi	r19, 0x01	; 1
     a74:	3f 93       	push	r19
     a76:	2f 93       	push	r18
     a78:	9f 92       	push	r9
     a7a:	8f 92       	push	r8
     a7c:	0e 94 11 04 	call	0x822	; 0x822 <_ZN5MyLCD5printEPKcz>
	lcd.writeChar(d_ch);
     a80:	61 2f       	mov	r22, r17
     a82:	c4 01       	movw	r24, r8
     a84:	0e 94 83 03 	call	0x706	; 0x706 <_ZN5MyLCD9writeCharEc>
	lcd.writeChar(d_ch2);
     a88:	60 2f       	mov	r22, r16
     a8a:	c4 01       	movw	r24, r8
     a8c:	0e 94 83 03 	call	0x706	; 0x706 <_ZN5MyLCD9writeCharEc>
     a90:	0f 90       	pop	r0
     a92:	0f 90       	pop	r0
     a94:	0f 90       	pop	r0
     a96:	0f 90       	pop	r0
     a98:	0f 90       	pop	r0
     a9a:	0f 90       	pop	r0
			*/
		//PORTD ^= _BV(3);
		//_delay_ms(1000);
		//PORTC ^= _BV(0);
		//_delay_ms(1000);
    }
     a9c:	ff cf       	rjmp	.-2      	; 0xa9c <main+0xf2>

00000a9e <vsprintf>:
     a9e:	ae e0       	ldi	r26, 0x0E	; 14
     aa0:	b0 e0       	ldi	r27, 0x00	; 0
     aa2:	e5 e5       	ldi	r30, 0x55	; 85
     aa4:	f5 e0       	ldi	r31, 0x05	; 5
     aa6:	0c 94 f8 07 	jmp	0xff0	; 0xff0 <__prologue_saves__+0x1c>
     aaa:	8c 01       	movw	r16, r24
     aac:	86 e0       	ldi	r24, 0x06	; 6
     aae:	8c 83       	std	Y+4, r24	; 0x04
     ab0:	1a 83       	std	Y+2, r17	; 0x02
     ab2:	09 83       	std	Y+1, r16	; 0x01
     ab4:	8f ef       	ldi	r24, 0xFF	; 255
     ab6:	9f e7       	ldi	r25, 0x7F	; 127
     ab8:	9e 83       	std	Y+6, r25	; 0x06
     aba:	8d 83       	std	Y+5, r24	; 0x05
     abc:	ce 01       	movw	r24, r28
     abe:	01 96       	adiw	r24, 0x01	; 1
     ac0:	0e 94 6c 05 	call	0xad8	; 0xad8 <vfprintf>
     ac4:	2f 81       	ldd	r18, Y+7	; 0x07
     ac6:	38 85       	ldd	r19, Y+8	; 0x08
     ac8:	f8 01       	movw	r30, r16
     aca:	e2 0f       	add	r30, r18
     acc:	f3 1f       	adc	r31, r19
     ace:	10 82       	st	Z, r1
     ad0:	2e 96       	adiw	r28, 0x0e	; 14
     ad2:	e4 e0       	ldi	r30, 0x04	; 4
     ad4:	0c 94 14 08 	jmp	0x1028	; 0x1028 <__epilogue_restores__+0x1c>

00000ad8 <vfprintf>:
     ad8:	ac e0       	ldi	r26, 0x0C	; 12
     ada:	b0 e0       	ldi	r27, 0x00	; 0
     adc:	e2 e7       	ldi	r30, 0x72	; 114
     ade:	f5 e0       	ldi	r31, 0x05	; 5
     ae0:	0c 94 ea 07 	jmp	0xfd4	; 0xfd4 <__prologue_saves__>
     ae4:	7c 01       	movw	r14, r24
     ae6:	6b 01       	movw	r12, r22
     ae8:	8a 01       	movw	r16, r20
     aea:	fc 01       	movw	r30, r24
     aec:	17 82       	std	Z+7, r1	; 0x07
     aee:	16 82       	std	Z+6, r1	; 0x06
     af0:	83 81       	ldd	r24, Z+3	; 0x03
     af2:	81 ff       	sbrs	r24, 1
     af4:	bd c1       	rjmp	.+890    	; 0xe70 <vfprintf+0x398>
     af6:	ce 01       	movw	r24, r28
     af8:	01 96       	adiw	r24, 0x01	; 1
     afa:	4c 01       	movw	r8, r24
     afc:	f7 01       	movw	r30, r14
     afe:	93 81       	ldd	r25, Z+3	; 0x03
     b00:	f6 01       	movw	r30, r12
     b02:	93 fd       	sbrc	r25, 3
     b04:	85 91       	lpm	r24, Z+
     b06:	93 ff       	sbrs	r25, 3
     b08:	81 91       	ld	r24, Z+
     b0a:	6f 01       	movw	r12, r30
     b0c:	88 23       	and	r24, r24
     b0e:	09 f4       	brne	.+2      	; 0xb12 <vfprintf+0x3a>
     b10:	ab c1       	rjmp	.+854    	; 0xe68 <vfprintf+0x390>
     b12:	85 32       	cpi	r24, 0x25	; 37
     b14:	39 f4       	brne	.+14     	; 0xb24 <vfprintf+0x4c>
     b16:	93 fd       	sbrc	r25, 3
     b18:	85 91       	lpm	r24, Z+
     b1a:	93 ff       	sbrs	r25, 3
     b1c:	81 91       	ld	r24, Z+
     b1e:	6f 01       	movw	r12, r30
     b20:	85 32       	cpi	r24, 0x25	; 37
     b22:	29 f4       	brne	.+10     	; 0xb2e <vfprintf+0x56>
     b24:	b7 01       	movw	r22, r14
     b26:	90 e0       	ldi	r25, 0x00	; 0
     b28:	0e 94 54 07 	call	0xea8	; 0xea8 <fputc>
     b2c:	e7 cf       	rjmp	.-50     	; 0xafc <vfprintf+0x24>
     b2e:	51 2c       	mov	r5, r1
     b30:	31 2c       	mov	r3, r1
     b32:	20 e0       	ldi	r18, 0x00	; 0
     b34:	20 32       	cpi	r18, 0x20	; 32
     b36:	a0 f4       	brcc	.+40     	; 0xb60 <vfprintf+0x88>
     b38:	8b 32       	cpi	r24, 0x2B	; 43
     b3a:	69 f0       	breq	.+26     	; 0xb56 <vfprintf+0x7e>
     b3c:	30 f4       	brcc	.+12     	; 0xb4a <vfprintf+0x72>
     b3e:	80 32       	cpi	r24, 0x20	; 32
     b40:	59 f0       	breq	.+22     	; 0xb58 <vfprintf+0x80>
     b42:	83 32       	cpi	r24, 0x23	; 35
     b44:	69 f4       	brne	.+26     	; 0xb60 <vfprintf+0x88>
     b46:	20 61       	ori	r18, 0x10	; 16
     b48:	2c c0       	rjmp	.+88     	; 0xba2 <vfprintf+0xca>
     b4a:	8d 32       	cpi	r24, 0x2D	; 45
     b4c:	39 f0       	breq	.+14     	; 0xb5c <vfprintf+0x84>
     b4e:	80 33       	cpi	r24, 0x30	; 48
     b50:	39 f4       	brne	.+14     	; 0xb60 <vfprintf+0x88>
     b52:	21 60       	ori	r18, 0x01	; 1
     b54:	26 c0       	rjmp	.+76     	; 0xba2 <vfprintf+0xca>
     b56:	22 60       	ori	r18, 0x02	; 2
     b58:	24 60       	ori	r18, 0x04	; 4
     b5a:	23 c0       	rjmp	.+70     	; 0xba2 <vfprintf+0xca>
     b5c:	28 60       	ori	r18, 0x08	; 8
     b5e:	21 c0       	rjmp	.+66     	; 0xba2 <vfprintf+0xca>
     b60:	27 fd       	sbrc	r18, 7
     b62:	27 c0       	rjmp	.+78     	; 0xbb2 <vfprintf+0xda>
     b64:	30 ed       	ldi	r19, 0xD0	; 208
     b66:	38 0f       	add	r19, r24
     b68:	3a 30       	cpi	r19, 0x0A	; 10
     b6a:	78 f4       	brcc	.+30     	; 0xb8a <vfprintf+0xb2>
     b6c:	26 ff       	sbrs	r18, 6
     b6e:	06 c0       	rjmp	.+12     	; 0xb7c <vfprintf+0xa4>
     b70:	fa e0       	ldi	r31, 0x0A	; 10
     b72:	5f 9e       	mul	r5, r31
     b74:	30 0d       	add	r19, r0
     b76:	11 24       	eor	r1, r1
     b78:	53 2e       	mov	r5, r19
     b7a:	13 c0       	rjmp	.+38     	; 0xba2 <vfprintf+0xca>
     b7c:	8a e0       	ldi	r24, 0x0A	; 10
     b7e:	38 9e       	mul	r3, r24
     b80:	30 0d       	add	r19, r0
     b82:	11 24       	eor	r1, r1
     b84:	33 2e       	mov	r3, r19
     b86:	20 62       	ori	r18, 0x20	; 32
     b88:	0c c0       	rjmp	.+24     	; 0xba2 <vfprintf+0xca>
     b8a:	8e 32       	cpi	r24, 0x2E	; 46
     b8c:	21 f4       	brne	.+8      	; 0xb96 <vfprintf+0xbe>
     b8e:	26 fd       	sbrc	r18, 6
     b90:	6b c1       	rjmp	.+726    	; 0xe68 <vfprintf+0x390>
     b92:	20 64       	ori	r18, 0x40	; 64
     b94:	06 c0       	rjmp	.+12     	; 0xba2 <vfprintf+0xca>
     b96:	8c 36       	cpi	r24, 0x6C	; 108
     b98:	11 f4       	brne	.+4      	; 0xb9e <vfprintf+0xc6>
     b9a:	20 68       	ori	r18, 0x80	; 128
     b9c:	02 c0       	rjmp	.+4      	; 0xba2 <vfprintf+0xca>
     b9e:	88 36       	cpi	r24, 0x68	; 104
     ba0:	41 f4       	brne	.+16     	; 0xbb2 <vfprintf+0xda>
     ba2:	f6 01       	movw	r30, r12
     ba4:	93 fd       	sbrc	r25, 3
     ba6:	85 91       	lpm	r24, Z+
     ba8:	93 ff       	sbrs	r25, 3
     baa:	81 91       	ld	r24, Z+
     bac:	6f 01       	movw	r12, r30
     bae:	81 11       	cpse	r24, r1
     bb0:	c1 cf       	rjmp	.-126    	; 0xb34 <vfprintf+0x5c>
     bb2:	98 2f       	mov	r25, r24
     bb4:	9f 7d       	andi	r25, 0xDF	; 223
     bb6:	95 54       	subi	r25, 0x45	; 69
     bb8:	93 30       	cpi	r25, 0x03	; 3
     bba:	28 f4       	brcc	.+10     	; 0xbc6 <vfprintf+0xee>
     bbc:	0c 5f       	subi	r16, 0xFC	; 252
     bbe:	1f 4f       	sbci	r17, 0xFF	; 255
     bc0:	ff e3       	ldi	r31, 0x3F	; 63
     bc2:	f9 83       	std	Y+1, r31	; 0x01
     bc4:	0d c0       	rjmp	.+26     	; 0xbe0 <vfprintf+0x108>
     bc6:	83 36       	cpi	r24, 0x63	; 99
     bc8:	31 f0       	breq	.+12     	; 0xbd6 <vfprintf+0xfe>
     bca:	83 37       	cpi	r24, 0x73	; 115
     bcc:	71 f0       	breq	.+28     	; 0xbea <vfprintf+0x112>
     bce:	83 35       	cpi	r24, 0x53	; 83
     bd0:	09 f0       	breq	.+2      	; 0xbd4 <vfprintf+0xfc>
     bd2:	5b c0       	rjmp	.+182    	; 0xc8a <vfprintf+0x1b2>
     bd4:	22 c0       	rjmp	.+68     	; 0xc1a <vfprintf+0x142>
     bd6:	f8 01       	movw	r30, r16
     bd8:	80 81       	ld	r24, Z
     bda:	89 83       	std	Y+1, r24	; 0x01
     bdc:	0e 5f       	subi	r16, 0xFE	; 254
     bde:	1f 4f       	sbci	r17, 0xFF	; 255
     be0:	44 24       	eor	r4, r4
     be2:	43 94       	inc	r4
     be4:	51 2c       	mov	r5, r1
     be6:	54 01       	movw	r10, r8
     be8:	15 c0       	rjmp	.+42     	; 0xc14 <vfprintf+0x13c>
     bea:	38 01       	movw	r6, r16
     bec:	f2 e0       	ldi	r31, 0x02	; 2
     bee:	6f 0e       	add	r6, r31
     bf0:	71 1c       	adc	r7, r1
     bf2:	f8 01       	movw	r30, r16
     bf4:	a0 80       	ld	r10, Z
     bf6:	b1 80       	ldd	r11, Z+1	; 0x01
     bf8:	26 ff       	sbrs	r18, 6
     bfa:	03 c0       	rjmp	.+6      	; 0xc02 <vfprintf+0x12a>
     bfc:	65 2d       	mov	r22, r5
     bfe:	70 e0       	ldi	r23, 0x00	; 0
     c00:	02 c0       	rjmp	.+4      	; 0xc06 <vfprintf+0x12e>
     c02:	6f ef       	ldi	r22, 0xFF	; 255
     c04:	7f ef       	ldi	r23, 0xFF	; 255
     c06:	c5 01       	movw	r24, r10
     c08:	2c 87       	std	Y+12, r18	; 0x0c
     c0a:	0e 94 49 07 	call	0xe92	; 0xe92 <strnlen>
     c0e:	2c 01       	movw	r4, r24
     c10:	83 01       	movw	r16, r6
     c12:	2c 85       	ldd	r18, Y+12	; 0x0c
     c14:	2f 77       	andi	r18, 0x7F	; 127
     c16:	22 2e       	mov	r2, r18
     c18:	17 c0       	rjmp	.+46     	; 0xc48 <vfprintf+0x170>
     c1a:	38 01       	movw	r6, r16
     c1c:	f2 e0       	ldi	r31, 0x02	; 2
     c1e:	6f 0e       	add	r6, r31
     c20:	71 1c       	adc	r7, r1
     c22:	f8 01       	movw	r30, r16
     c24:	a0 80       	ld	r10, Z
     c26:	b1 80       	ldd	r11, Z+1	; 0x01
     c28:	26 ff       	sbrs	r18, 6
     c2a:	03 c0       	rjmp	.+6      	; 0xc32 <vfprintf+0x15a>
     c2c:	65 2d       	mov	r22, r5
     c2e:	70 e0       	ldi	r23, 0x00	; 0
     c30:	02 c0       	rjmp	.+4      	; 0xc36 <vfprintf+0x15e>
     c32:	6f ef       	ldi	r22, 0xFF	; 255
     c34:	7f ef       	ldi	r23, 0xFF	; 255
     c36:	c5 01       	movw	r24, r10
     c38:	2c 87       	std	Y+12, r18	; 0x0c
     c3a:	0e 94 3e 07 	call	0xe7c	; 0xe7c <strnlen_P>
     c3e:	2c 01       	movw	r4, r24
     c40:	2c 85       	ldd	r18, Y+12	; 0x0c
     c42:	20 68       	ori	r18, 0x80	; 128
     c44:	22 2e       	mov	r2, r18
     c46:	83 01       	movw	r16, r6
     c48:	23 fc       	sbrc	r2, 3
     c4a:	1b c0       	rjmp	.+54     	; 0xc82 <vfprintf+0x1aa>
     c4c:	83 2d       	mov	r24, r3
     c4e:	90 e0       	ldi	r25, 0x00	; 0
     c50:	48 16       	cp	r4, r24
     c52:	59 06       	cpc	r5, r25
     c54:	b0 f4       	brcc	.+44     	; 0xc82 <vfprintf+0x1aa>
     c56:	b7 01       	movw	r22, r14
     c58:	80 e2       	ldi	r24, 0x20	; 32
     c5a:	90 e0       	ldi	r25, 0x00	; 0
     c5c:	0e 94 54 07 	call	0xea8	; 0xea8 <fputc>
     c60:	3a 94       	dec	r3
     c62:	f4 cf       	rjmp	.-24     	; 0xc4c <vfprintf+0x174>
     c64:	f5 01       	movw	r30, r10
     c66:	27 fc       	sbrc	r2, 7
     c68:	85 91       	lpm	r24, Z+
     c6a:	27 fe       	sbrs	r2, 7
     c6c:	81 91       	ld	r24, Z+
     c6e:	5f 01       	movw	r10, r30
     c70:	b7 01       	movw	r22, r14
     c72:	90 e0       	ldi	r25, 0x00	; 0
     c74:	0e 94 54 07 	call	0xea8	; 0xea8 <fputc>
     c78:	31 10       	cpse	r3, r1
     c7a:	3a 94       	dec	r3
     c7c:	f1 e0       	ldi	r31, 0x01	; 1
     c7e:	4f 1a       	sub	r4, r31
     c80:	51 08       	sbc	r5, r1
     c82:	41 14       	cp	r4, r1
     c84:	51 04       	cpc	r5, r1
     c86:	71 f7       	brne	.-36     	; 0xc64 <vfprintf+0x18c>
     c88:	e5 c0       	rjmp	.+458    	; 0xe54 <vfprintf+0x37c>
     c8a:	84 36       	cpi	r24, 0x64	; 100
     c8c:	11 f0       	breq	.+4      	; 0xc92 <vfprintf+0x1ba>
     c8e:	89 36       	cpi	r24, 0x69	; 105
     c90:	39 f5       	brne	.+78     	; 0xce0 <vfprintf+0x208>
     c92:	f8 01       	movw	r30, r16
     c94:	27 ff       	sbrs	r18, 7
     c96:	07 c0       	rjmp	.+14     	; 0xca6 <vfprintf+0x1ce>
     c98:	60 81       	ld	r22, Z
     c9a:	71 81       	ldd	r23, Z+1	; 0x01
     c9c:	82 81       	ldd	r24, Z+2	; 0x02
     c9e:	93 81       	ldd	r25, Z+3	; 0x03
     ca0:	0c 5f       	subi	r16, 0xFC	; 252
     ca2:	1f 4f       	sbci	r17, 0xFF	; 255
     ca4:	08 c0       	rjmp	.+16     	; 0xcb6 <vfprintf+0x1de>
     ca6:	60 81       	ld	r22, Z
     ca8:	71 81       	ldd	r23, Z+1	; 0x01
     caa:	07 2e       	mov	r0, r23
     cac:	00 0c       	add	r0, r0
     cae:	88 0b       	sbc	r24, r24
     cb0:	99 0b       	sbc	r25, r25
     cb2:	0e 5f       	subi	r16, 0xFE	; 254
     cb4:	1f 4f       	sbci	r17, 0xFF	; 255
     cb6:	2f 76       	andi	r18, 0x6F	; 111
     cb8:	72 2e       	mov	r7, r18
     cba:	97 ff       	sbrs	r25, 7
     cbc:	09 c0       	rjmp	.+18     	; 0xcd0 <vfprintf+0x1f8>
     cbe:	90 95       	com	r25
     cc0:	80 95       	com	r24
     cc2:	70 95       	com	r23
     cc4:	61 95       	neg	r22
     cc6:	7f 4f       	sbci	r23, 0xFF	; 255
     cc8:	8f 4f       	sbci	r24, 0xFF	; 255
     cca:	9f 4f       	sbci	r25, 0xFF	; 255
     ccc:	20 68       	ori	r18, 0x80	; 128
     cce:	72 2e       	mov	r7, r18
     cd0:	2a e0       	ldi	r18, 0x0A	; 10
     cd2:	30 e0       	ldi	r19, 0x00	; 0
     cd4:	a4 01       	movw	r20, r8
     cd6:	0e 94 8c 07 	call	0xf18	; 0xf18 <__ultoa_invert>
     cda:	a8 2e       	mov	r10, r24
     cdc:	a8 18       	sub	r10, r8
     cde:	44 c0       	rjmp	.+136    	; 0xd68 <vfprintf+0x290>
     ce0:	85 37       	cpi	r24, 0x75	; 117
     ce2:	29 f4       	brne	.+10     	; 0xcee <vfprintf+0x216>
     ce4:	2f 7e       	andi	r18, 0xEF	; 239
     ce6:	b2 2e       	mov	r11, r18
     ce8:	2a e0       	ldi	r18, 0x0A	; 10
     cea:	30 e0       	ldi	r19, 0x00	; 0
     cec:	25 c0       	rjmp	.+74     	; 0xd38 <vfprintf+0x260>
     cee:	f2 2f       	mov	r31, r18
     cf0:	f9 7f       	andi	r31, 0xF9	; 249
     cf2:	bf 2e       	mov	r11, r31
     cf4:	8f 36       	cpi	r24, 0x6F	; 111
     cf6:	c1 f0       	breq	.+48     	; 0xd28 <vfprintf+0x250>
     cf8:	18 f4       	brcc	.+6      	; 0xd00 <vfprintf+0x228>
     cfa:	88 35       	cpi	r24, 0x58	; 88
     cfc:	79 f0       	breq	.+30     	; 0xd1c <vfprintf+0x244>
     cfe:	b4 c0       	rjmp	.+360    	; 0xe68 <vfprintf+0x390>
     d00:	80 37       	cpi	r24, 0x70	; 112
     d02:	19 f0       	breq	.+6      	; 0xd0a <vfprintf+0x232>
     d04:	88 37       	cpi	r24, 0x78	; 120
     d06:	21 f0       	breq	.+8      	; 0xd10 <vfprintf+0x238>
     d08:	af c0       	rjmp	.+350    	; 0xe68 <vfprintf+0x390>
     d0a:	2f 2f       	mov	r18, r31
     d0c:	20 61       	ori	r18, 0x10	; 16
     d0e:	b2 2e       	mov	r11, r18
     d10:	b4 fe       	sbrs	r11, 4
     d12:	0d c0       	rjmp	.+26     	; 0xd2e <vfprintf+0x256>
     d14:	8b 2d       	mov	r24, r11
     d16:	84 60       	ori	r24, 0x04	; 4
     d18:	b8 2e       	mov	r11, r24
     d1a:	09 c0       	rjmp	.+18     	; 0xd2e <vfprintf+0x256>
     d1c:	24 ff       	sbrs	r18, 4
     d1e:	0a c0       	rjmp	.+20     	; 0xd34 <vfprintf+0x25c>
     d20:	9f 2f       	mov	r25, r31
     d22:	96 60       	ori	r25, 0x06	; 6
     d24:	b9 2e       	mov	r11, r25
     d26:	06 c0       	rjmp	.+12     	; 0xd34 <vfprintf+0x25c>
     d28:	28 e0       	ldi	r18, 0x08	; 8
     d2a:	30 e0       	ldi	r19, 0x00	; 0
     d2c:	05 c0       	rjmp	.+10     	; 0xd38 <vfprintf+0x260>
     d2e:	20 e1       	ldi	r18, 0x10	; 16
     d30:	30 e0       	ldi	r19, 0x00	; 0
     d32:	02 c0       	rjmp	.+4      	; 0xd38 <vfprintf+0x260>
     d34:	20 e1       	ldi	r18, 0x10	; 16
     d36:	32 e0       	ldi	r19, 0x02	; 2
     d38:	f8 01       	movw	r30, r16
     d3a:	b7 fe       	sbrs	r11, 7
     d3c:	07 c0       	rjmp	.+14     	; 0xd4c <vfprintf+0x274>
     d3e:	60 81       	ld	r22, Z
     d40:	71 81       	ldd	r23, Z+1	; 0x01
     d42:	82 81       	ldd	r24, Z+2	; 0x02
     d44:	93 81       	ldd	r25, Z+3	; 0x03
     d46:	0c 5f       	subi	r16, 0xFC	; 252
     d48:	1f 4f       	sbci	r17, 0xFF	; 255
     d4a:	06 c0       	rjmp	.+12     	; 0xd58 <vfprintf+0x280>
     d4c:	60 81       	ld	r22, Z
     d4e:	71 81       	ldd	r23, Z+1	; 0x01
     d50:	80 e0       	ldi	r24, 0x00	; 0
     d52:	90 e0       	ldi	r25, 0x00	; 0
     d54:	0e 5f       	subi	r16, 0xFE	; 254
     d56:	1f 4f       	sbci	r17, 0xFF	; 255
     d58:	a4 01       	movw	r20, r8
     d5a:	0e 94 8c 07 	call	0xf18	; 0xf18 <__ultoa_invert>
     d5e:	a8 2e       	mov	r10, r24
     d60:	a8 18       	sub	r10, r8
     d62:	fb 2d       	mov	r31, r11
     d64:	ff 77       	andi	r31, 0x7F	; 127
     d66:	7f 2e       	mov	r7, r31
     d68:	76 fe       	sbrs	r7, 6
     d6a:	0b c0       	rjmp	.+22     	; 0xd82 <vfprintf+0x2aa>
     d6c:	37 2d       	mov	r19, r7
     d6e:	3e 7f       	andi	r19, 0xFE	; 254
     d70:	a5 14       	cp	r10, r5
     d72:	50 f4       	brcc	.+20     	; 0xd88 <vfprintf+0x2b0>
     d74:	74 fe       	sbrs	r7, 4
     d76:	0a c0       	rjmp	.+20     	; 0xd8c <vfprintf+0x2b4>
     d78:	72 fc       	sbrc	r7, 2
     d7a:	08 c0       	rjmp	.+16     	; 0xd8c <vfprintf+0x2b4>
     d7c:	37 2d       	mov	r19, r7
     d7e:	3e 7e       	andi	r19, 0xEE	; 238
     d80:	05 c0       	rjmp	.+10     	; 0xd8c <vfprintf+0x2b4>
     d82:	ba 2c       	mov	r11, r10
     d84:	37 2d       	mov	r19, r7
     d86:	03 c0       	rjmp	.+6      	; 0xd8e <vfprintf+0x2b6>
     d88:	ba 2c       	mov	r11, r10
     d8a:	01 c0       	rjmp	.+2      	; 0xd8e <vfprintf+0x2b6>
     d8c:	b5 2c       	mov	r11, r5
     d8e:	34 ff       	sbrs	r19, 4
     d90:	0d c0       	rjmp	.+26     	; 0xdac <vfprintf+0x2d4>
     d92:	fe 01       	movw	r30, r28
     d94:	ea 0d       	add	r30, r10
     d96:	f1 1d       	adc	r31, r1
     d98:	80 81       	ld	r24, Z
     d9a:	80 33       	cpi	r24, 0x30	; 48
     d9c:	11 f4       	brne	.+4      	; 0xda2 <vfprintf+0x2ca>
     d9e:	39 7e       	andi	r19, 0xE9	; 233
     da0:	09 c0       	rjmp	.+18     	; 0xdb4 <vfprintf+0x2dc>
     da2:	32 ff       	sbrs	r19, 2
     da4:	06 c0       	rjmp	.+12     	; 0xdb2 <vfprintf+0x2da>
     da6:	b3 94       	inc	r11
     da8:	b3 94       	inc	r11
     daa:	04 c0       	rjmp	.+8      	; 0xdb4 <vfprintf+0x2dc>
     dac:	83 2f       	mov	r24, r19
     dae:	86 78       	andi	r24, 0x86	; 134
     db0:	09 f0       	breq	.+2      	; 0xdb4 <vfprintf+0x2dc>
     db2:	b3 94       	inc	r11
     db4:	33 fd       	sbrc	r19, 3
     db6:	13 c0       	rjmp	.+38     	; 0xdde <vfprintf+0x306>
     db8:	30 ff       	sbrs	r19, 0
     dba:	06 c0       	rjmp	.+12     	; 0xdc8 <vfprintf+0x2f0>
     dbc:	5a 2c       	mov	r5, r10
     dbe:	b3 14       	cp	r11, r3
     dc0:	18 f4       	brcc	.+6      	; 0xdc8 <vfprintf+0x2f0>
     dc2:	53 0c       	add	r5, r3
     dc4:	5b 18       	sub	r5, r11
     dc6:	b3 2c       	mov	r11, r3
     dc8:	b3 14       	cp	r11, r3
     dca:	68 f4       	brcc	.+26     	; 0xde6 <vfprintf+0x30e>
     dcc:	b7 01       	movw	r22, r14
     dce:	80 e2       	ldi	r24, 0x20	; 32
     dd0:	90 e0       	ldi	r25, 0x00	; 0
     dd2:	3c 87       	std	Y+12, r19	; 0x0c
     dd4:	0e 94 54 07 	call	0xea8	; 0xea8 <fputc>
     dd8:	b3 94       	inc	r11
     dda:	3c 85       	ldd	r19, Y+12	; 0x0c
     ddc:	f5 cf       	rjmp	.-22     	; 0xdc8 <vfprintf+0x2f0>
     dde:	b3 14       	cp	r11, r3
     de0:	10 f4       	brcc	.+4      	; 0xde6 <vfprintf+0x30e>
     de2:	3b 18       	sub	r3, r11
     de4:	01 c0       	rjmp	.+2      	; 0xde8 <vfprintf+0x310>
     de6:	31 2c       	mov	r3, r1
     de8:	34 ff       	sbrs	r19, 4
     dea:	12 c0       	rjmp	.+36     	; 0xe10 <vfprintf+0x338>
     dec:	b7 01       	movw	r22, r14
     dee:	80 e3       	ldi	r24, 0x30	; 48
     df0:	90 e0       	ldi	r25, 0x00	; 0
     df2:	3c 87       	std	Y+12, r19	; 0x0c
     df4:	0e 94 54 07 	call	0xea8	; 0xea8 <fputc>
     df8:	3c 85       	ldd	r19, Y+12	; 0x0c
     dfa:	32 ff       	sbrs	r19, 2
     dfc:	17 c0       	rjmp	.+46     	; 0xe2c <vfprintf+0x354>
     dfe:	31 fd       	sbrc	r19, 1
     e00:	03 c0       	rjmp	.+6      	; 0xe08 <vfprintf+0x330>
     e02:	88 e7       	ldi	r24, 0x78	; 120
     e04:	90 e0       	ldi	r25, 0x00	; 0
     e06:	02 c0       	rjmp	.+4      	; 0xe0c <vfprintf+0x334>
     e08:	88 e5       	ldi	r24, 0x58	; 88
     e0a:	90 e0       	ldi	r25, 0x00	; 0
     e0c:	b7 01       	movw	r22, r14
     e0e:	0c c0       	rjmp	.+24     	; 0xe28 <vfprintf+0x350>
     e10:	83 2f       	mov	r24, r19
     e12:	86 78       	andi	r24, 0x86	; 134
     e14:	59 f0       	breq	.+22     	; 0xe2c <vfprintf+0x354>
     e16:	31 ff       	sbrs	r19, 1
     e18:	02 c0       	rjmp	.+4      	; 0xe1e <vfprintf+0x346>
     e1a:	8b e2       	ldi	r24, 0x2B	; 43
     e1c:	01 c0       	rjmp	.+2      	; 0xe20 <vfprintf+0x348>
     e1e:	80 e2       	ldi	r24, 0x20	; 32
     e20:	37 fd       	sbrc	r19, 7
     e22:	8d e2       	ldi	r24, 0x2D	; 45
     e24:	b7 01       	movw	r22, r14
     e26:	90 e0       	ldi	r25, 0x00	; 0
     e28:	0e 94 54 07 	call	0xea8	; 0xea8 <fputc>
     e2c:	a5 14       	cp	r10, r5
     e2e:	38 f4       	brcc	.+14     	; 0xe3e <vfprintf+0x366>
     e30:	b7 01       	movw	r22, r14
     e32:	80 e3       	ldi	r24, 0x30	; 48
     e34:	90 e0       	ldi	r25, 0x00	; 0
     e36:	0e 94 54 07 	call	0xea8	; 0xea8 <fputc>
     e3a:	5a 94       	dec	r5
     e3c:	f7 cf       	rjmp	.-18     	; 0xe2c <vfprintf+0x354>
     e3e:	aa 94       	dec	r10
     e40:	f4 01       	movw	r30, r8
     e42:	ea 0d       	add	r30, r10
     e44:	f1 1d       	adc	r31, r1
     e46:	80 81       	ld	r24, Z
     e48:	b7 01       	movw	r22, r14
     e4a:	90 e0       	ldi	r25, 0x00	; 0
     e4c:	0e 94 54 07 	call	0xea8	; 0xea8 <fputc>
     e50:	a1 10       	cpse	r10, r1
     e52:	f5 cf       	rjmp	.-22     	; 0xe3e <vfprintf+0x366>
     e54:	33 20       	and	r3, r3
     e56:	09 f4       	brne	.+2      	; 0xe5a <vfprintf+0x382>
     e58:	51 ce       	rjmp	.-862    	; 0xafc <vfprintf+0x24>
     e5a:	b7 01       	movw	r22, r14
     e5c:	80 e2       	ldi	r24, 0x20	; 32
     e5e:	90 e0       	ldi	r25, 0x00	; 0
     e60:	0e 94 54 07 	call	0xea8	; 0xea8 <fputc>
     e64:	3a 94       	dec	r3
     e66:	f6 cf       	rjmp	.-20     	; 0xe54 <vfprintf+0x37c>
     e68:	f7 01       	movw	r30, r14
     e6a:	86 81       	ldd	r24, Z+6	; 0x06
     e6c:	97 81       	ldd	r25, Z+7	; 0x07
     e6e:	02 c0       	rjmp	.+4      	; 0xe74 <vfprintf+0x39c>
     e70:	8f ef       	ldi	r24, 0xFF	; 255
     e72:	9f ef       	ldi	r25, 0xFF	; 255
     e74:	2c 96       	adiw	r28, 0x0c	; 12
     e76:	e2 e1       	ldi	r30, 0x12	; 18
     e78:	0c 94 06 08 	jmp	0x100c	; 0x100c <__epilogue_restores__>

00000e7c <strnlen_P>:
     e7c:	fc 01       	movw	r30, r24
     e7e:	05 90       	lpm	r0, Z+
     e80:	61 50       	subi	r22, 0x01	; 1
     e82:	70 40       	sbci	r23, 0x00	; 0
     e84:	01 10       	cpse	r0, r1
     e86:	d8 f7       	brcc	.-10     	; 0xe7e <strnlen_P+0x2>
     e88:	80 95       	com	r24
     e8a:	90 95       	com	r25
     e8c:	8e 0f       	add	r24, r30
     e8e:	9f 1f       	adc	r25, r31
     e90:	08 95       	ret

00000e92 <strnlen>:
     e92:	fc 01       	movw	r30, r24
     e94:	61 50       	subi	r22, 0x01	; 1
     e96:	70 40       	sbci	r23, 0x00	; 0
     e98:	01 90       	ld	r0, Z+
     e9a:	01 10       	cpse	r0, r1
     e9c:	d8 f7       	brcc	.-10     	; 0xe94 <strnlen+0x2>
     e9e:	80 95       	com	r24
     ea0:	90 95       	com	r25
     ea2:	8e 0f       	add	r24, r30
     ea4:	9f 1f       	adc	r25, r31
     ea6:	08 95       	ret

00000ea8 <fputc>:
     ea8:	0f 93       	push	r16
     eaa:	1f 93       	push	r17
     eac:	cf 93       	push	r28
     eae:	df 93       	push	r29
     eb0:	fb 01       	movw	r30, r22
     eb2:	23 81       	ldd	r18, Z+3	; 0x03
     eb4:	21 fd       	sbrc	r18, 1
     eb6:	03 c0       	rjmp	.+6      	; 0xebe <fputc+0x16>
     eb8:	8f ef       	ldi	r24, 0xFF	; 255
     eba:	9f ef       	ldi	r25, 0xFF	; 255
     ebc:	28 c0       	rjmp	.+80     	; 0xf0e <fputc+0x66>
     ebe:	22 ff       	sbrs	r18, 2
     ec0:	16 c0       	rjmp	.+44     	; 0xeee <fputc+0x46>
     ec2:	46 81       	ldd	r20, Z+6	; 0x06
     ec4:	57 81       	ldd	r21, Z+7	; 0x07
     ec6:	24 81       	ldd	r18, Z+4	; 0x04
     ec8:	35 81       	ldd	r19, Z+5	; 0x05
     eca:	42 17       	cp	r20, r18
     ecc:	53 07       	cpc	r21, r19
     ece:	44 f4       	brge	.+16     	; 0xee0 <fputc+0x38>
     ed0:	a0 81       	ld	r26, Z
     ed2:	b1 81       	ldd	r27, Z+1	; 0x01
     ed4:	9d 01       	movw	r18, r26
     ed6:	2f 5f       	subi	r18, 0xFF	; 255
     ed8:	3f 4f       	sbci	r19, 0xFF	; 255
     eda:	31 83       	std	Z+1, r19	; 0x01
     edc:	20 83       	st	Z, r18
     ede:	8c 93       	st	X, r24
     ee0:	26 81       	ldd	r18, Z+6	; 0x06
     ee2:	37 81       	ldd	r19, Z+7	; 0x07
     ee4:	2f 5f       	subi	r18, 0xFF	; 255
     ee6:	3f 4f       	sbci	r19, 0xFF	; 255
     ee8:	37 83       	std	Z+7, r19	; 0x07
     eea:	26 83       	std	Z+6, r18	; 0x06
     eec:	10 c0       	rjmp	.+32     	; 0xf0e <fputc+0x66>
     eee:	eb 01       	movw	r28, r22
     ef0:	09 2f       	mov	r16, r25
     ef2:	18 2f       	mov	r17, r24
     ef4:	00 84       	ldd	r0, Z+8	; 0x08
     ef6:	f1 85       	ldd	r31, Z+9	; 0x09
     ef8:	e0 2d       	mov	r30, r0
     efa:	09 95       	icall
     efc:	89 2b       	or	r24, r25
     efe:	e1 f6       	brne	.-72     	; 0xeb8 <fputc+0x10>
     f00:	8e 81       	ldd	r24, Y+6	; 0x06
     f02:	9f 81       	ldd	r25, Y+7	; 0x07
     f04:	01 96       	adiw	r24, 0x01	; 1
     f06:	9f 83       	std	Y+7, r25	; 0x07
     f08:	8e 83       	std	Y+6, r24	; 0x06
     f0a:	81 2f       	mov	r24, r17
     f0c:	90 2f       	mov	r25, r16
     f0e:	df 91       	pop	r29
     f10:	cf 91       	pop	r28
     f12:	1f 91       	pop	r17
     f14:	0f 91       	pop	r16
     f16:	08 95       	ret

00000f18 <__ultoa_invert>:
     f18:	fa 01       	movw	r30, r20
     f1a:	aa 27       	eor	r26, r26
     f1c:	28 30       	cpi	r18, 0x08	; 8
     f1e:	51 f1       	breq	.+84     	; 0xf74 <__ultoa_invert+0x5c>
     f20:	20 31       	cpi	r18, 0x10	; 16
     f22:	81 f1       	breq	.+96     	; 0xf84 <__ultoa_invert+0x6c>
     f24:	e8 94       	clt
     f26:	6f 93       	push	r22
     f28:	6e 7f       	andi	r22, 0xFE	; 254
     f2a:	6e 5f       	subi	r22, 0xFE	; 254
     f2c:	7f 4f       	sbci	r23, 0xFF	; 255
     f2e:	8f 4f       	sbci	r24, 0xFF	; 255
     f30:	9f 4f       	sbci	r25, 0xFF	; 255
     f32:	af 4f       	sbci	r26, 0xFF	; 255
     f34:	b1 e0       	ldi	r27, 0x01	; 1
     f36:	3e d0       	rcall	.+124    	; 0xfb4 <__ultoa_invert+0x9c>
     f38:	b4 e0       	ldi	r27, 0x04	; 4
     f3a:	3c d0       	rcall	.+120    	; 0xfb4 <__ultoa_invert+0x9c>
     f3c:	67 0f       	add	r22, r23
     f3e:	78 1f       	adc	r23, r24
     f40:	89 1f       	adc	r24, r25
     f42:	9a 1f       	adc	r25, r26
     f44:	a1 1d       	adc	r26, r1
     f46:	68 0f       	add	r22, r24
     f48:	79 1f       	adc	r23, r25
     f4a:	8a 1f       	adc	r24, r26
     f4c:	91 1d       	adc	r25, r1
     f4e:	a1 1d       	adc	r26, r1
     f50:	6a 0f       	add	r22, r26
     f52:	71 1d       	adc	r23, r1
     f54:	81 1d       	adc	r24, r1
     f56:	91 1d       	adc	r25, r1
     f58:	a1 1d       	adc	r26, r1
     f5a:	20 d0       	rcall	.+64     	; 0xf9c <__ultoa_invert+0x84>
     f5c:	09 f4       	brne	.+2      	; 0xf60 <__ultoa_invert+0x48>
     f5e:	68 94       	set
     f60:	3f 91       	pop	r19
     f62:	2a e0       	ldi	r18, 0x0A	; 10
     f64:	26 9f       	mul	r18, r22
     f66:	11 24       	eor	r1, r1
     f68:	30 19       	sub	r19, r0
     f6a:	30 5d       	subi	r19, 0xD0	; 208
     f6c:	31 93       	st	Z+, r19
     f6e:	de f6       	brtc	.-74     	; 0xf26 <__ultoa_invert+0xe>
     f70:	cf 01       	movw	r24, r30
     f72:	08 95       	ret
     f74:	46 2f       	mov	r20, r22
     f76:	47 70       	andi	r20, 0x07	; 7
     f78:	40 5d       	subi	r20, 0xD0	; 208
     f7a:	41 93       	st	Z+, r20
     f7c:	b3 e0       	ldi	r27, 0x03	; 3
     f7e:	0f d0       	rcall	.+30     	; 0xf9e <__ultoa_invert+0x86>
     f80:	c9 f7       	brne	.-14     	; 0xf74 <__ultoa_invert+0x5c>
     f82:	f6 cf       	rjmp	.-20     	; 0xf70 <__ultoa_invert+0x58>
     f84:	46 2f       	mov	r20, r22
     f86:	4f 70       	andi	r20, 0x0F	; 15
     f88:	40 5d       	subi	r20, 0xD0	; 208
     f8a:	4a 33       	cpi	r20, 0x3A	; 58
     f8c:	18 f0       	brcs	.+6      	; 0xf94 <__ultoa_invert+0x7c>
     f8e:	49 5d       	subi	r20, 0xD9	; 217
     f90:	31 fd       	sbrc	r19, 1
     f92:	40 52       	subi	r20, 0x20	; 32
     f94:	41 93       	st	Z+, r20
     f96:	02 d0       	rcall	.+4      	; 0xf9c <__ultoa_invert+0x84>
     f98:	a9 f7       	brne	.-22     	; 0xf84 <__ultoa_invert+0x6c>
     f9a:	ea cf       	rjmp	.-44     	; 0xf70 <__ultoa_invert+0x58>
     f9c:	b4 e0       	ldi	r27, 0x04	; 4
     f9e:	a6 95       	lsr	r26
     fa0:	97 95       	ror	r25
     fa2:	87 95       	ror	r24
     fa4:	77 95       	ror	r23
     fa6:	67 95       	ror	r22
     fa8:	ba 95       	dec	r27
     faa:	c9 f7       	brne	.-14     	; 0xf9e <__ultoa_invert+0x86>
     fac:	00 97       	sbiw	r24, 0x00	; 0
     fae:	61 05       	cpc	r22, r1
     fb0:	71 05       	cpc	r23, r1
     fb2:	08 95       	ret
     fb4:	9b 01       	movw	r18, r22
     fb6:	ac 01       	movw	r20, r24
     fb8:	0a 2e       	mov	r0, r26
     fba:	06 94       	lsr	r0
     fbc:	57 95       	ror	r21
     fbe:	47 95       	ror	r20
     fc0:	37 95       	ror	r19
     fc2:	27 95       	ror	r18
     fc4:	ba 95       	dec	r27
     fc6:	c9 f7       	brne	.-14     	; 0xfba <__ultoa_invert+0xa2>
     fc8:	62 0f       	add	r22, r18
     fca:	73 1f       	adc	r23, r19
     fcc:	84 1f       	adc	r24, r20
     fce:	95 1f       	adc	r25, r21
     fd0:	a0 1d       	adc	r26, r0
     fd2:	08 95       	ret

00000fd4 <__prologue_saves__>:
     fd4:	2f 92       	push	r2
     fd6:	3f 92       	push	r3
     fd8:	4f 92       	push	r4
     fda:	5f 92       	push	r5
     fdc:	6f 92       	push	r6
     fde:	7f 92       	push	r7
     fe0:	8f 92       	push	r8
     fe2:	9f 92       	push	r9
     fe4:	af 92       	push	r10
     fe6:	bf 92       	push	r11
     fe8:	cf 92       	push	r12
     fea:	df 92       	push	r13
     fec:	ef 92       	push	r14
     fee:	ff 92       	push	r15
     ff0:	0f 93       	push	r16
     ff2:	1f 93       	push	r17
     ff4:	cf 93       	push	r28
     ff6:	df 93       	push	r29
     ff8:	cd b7       	in	r28, 0x3d	; 61
     ffa:	de b7       	in	r29, 0x3e	; 62
     ffc:	ca 1b       	sub	r28, r26
     ffe:	db 0b       	sbc	r29, r27
    1000:	0f b6       	in	r0, 0x3f	; 63
    1002:	f8 94       	cli
    1004:	de bf       	out	0x3e, r29	; 62
    1006:	0f be       	out	0x3f, r0	; 63
    1008:	cd bf       	out	0x3d, r28	; 61
    100a:	09 94       	ijmp

0000100c <__epilogue_restores__>:
    100c:	2a 88       	ldd	r2, Y+18	; 0x12
    100e:	39 88       	ldd	r3, Y+17	; 0x11
    1010:	48 88       	ldd	r4, Y+16	; 0x10
    1012:	5f 84       	ldd	r5, Y+15	; 0x0f
    1014:	6e 84       	ldd	r6, Y+14	; 0x0e
    1016:	7d 84       	ldd	r7, Y+13	; 0x0d
    1018:	8c 84       	ldd	r8, Y+12	; 0x0c
    101a:	9b 84       	ldd	r9, Y+11	; 0x0b
    101c:	aa 84       	ldd	r10, Y+10	; 0x0a
    101e:	b9 84       	ldd	r11, Y+9	; 0x09
    1020:	c8 84       	ldd	r12, Y+8	; 0x08
    1022:	df 80       	ldd	r13, Y+7	; 0x07
    1024:	ee 80       	ldd	r14, Y+6	; 0x06
    1026:	fd 80       	ldd	r15, Y+5	; 0x05
    1028:	0c 81       	ldd	r16, Y+4	; 0x04
    102a:	1b 81       	ldd	r17, Y+3	; 0x03
    102c:	aa 81       	ldd	r26, Y+2	; 0x02
    102e:	b9 81       	ldd	r27, Y+1	; 0x01
    1030:	ce 0f       	add	r28, r30
    1032:	d1 1d       	adc	r29, r1
    1034:	0f b6       	in	r0, 0x3f	; 63
    1036:	f8 94       	cli
    1038:	de bf       	out	0x3e, r29	; 62
    103a:	0f be       	out	0x3f, r0	; 63
    103c:	cd bf       	out	0x3d, r28	; 61
    103e:	ed 01       	movw	r28, r26
    1040:	08 95       	ret

00001042 <_exit>:
    1042:	f8 94       	cli

00001044 <__stop_program>:
    1044:	ff cf       	rjmp	.-2      	; 0x1044 <__stop_program>
